Archive member included to satisfy reference by file (symbol)

/usr/lib/gcc/i686-pc-cygwin/4.9.2/libgfortran.a(compile_options.o)
                              obj/imploc.o (_gfortran_set_options)
/usr/lib/gcc/i686-pc-cygwin/4.9.2/libgfortran.a(environ.o)
                              /usr/lib/gcc/i686-pc-cygwin/4.9.2/libgfortran.a(compile_options.o) (_gfortrani_options)
/usr/lib/gcc/i686-pc-cygwin/4.9.2/libgfortran.a(error.o)
                              /usr/lib/gcc/i686-pc-cygwin/4.9.2/libgfortran.a(compile_options.o) (_gfortrani_estr_write)
/usr/lib/gcc/i686-pc-cygwin/4.9.2/libgfortran.a(main.o)
                              /usr/lib/gcc/i686-pc-cygwin/4.9.2/libgfortran.a(error.o) (_gfortrani_stupid_function_name_for_static_linking)
/usr/lib/gcc/i686-pc-cygwin/4.9.2/libgfortran.a(memory.o)
                              /usr/lib/gcc/i686-pc-cygwin/4.9.2/libgfortran.a(main.o) (_gfortrani_xmalloc)
/usr/lib/gcc/i686-pc-cygwin/4.9.2/libgfortran.a(stop.o)
                              obj/imploc.o (_gfortran_stop_numeric_f08)
/usr/lib/gcc/i686-pc-cygwin/4.9.2/libgfortran.a(string.o)
                              /usr/lib/gcc/i686-pc-cygwin/4.9.2/libgfortran.a(error.o) (_gfortrani_cf_strcpy)
/usr/lib/gcc/i686-pc-cygwin/4.9.2/libgfortran.a(close.o)
                              obj/imploc.o (_gfortran_st_close)
/usr/lib/gcc/i686-pc-cygwin/4.9.2/libgfortran.a(file_pos.o)
                              obj/lcomm.o (_gfortran_st_backspace)
/usr/lib/gcc/i686-pc-cygwin/4.9.2/libgfortran.a(inquire.o)
                              obj/io_list.o (_gfortran_st_inquire)
/usr/lib/gcc/i686-pc-cygwin/4.9.2/libgfortran.a(lock.o)
                              /usr/lib/gcc/i686-pc-cygwin/4.9.2/libgfortran.a(close.o) (_gfortrani_library_start)
/usr/lib/gcc/i686-pc-cygwin/4.9.2/libgfortran.a(open.o)
                              /usr/lib/gcc/i686-pc-cygwin/4.9.2/libgfortran.a(file_pos.o) (_gfortrani_new_unit)
/usr/lib/gcc/i686-pc-cygwin/4.9.2/libgfortran.a(transfer.o)
                              obj/imploc.o (_gfortran_transfer_integer)
/usr/lib/gcc/i686-pc-cygwin/4.9.2/libgfortran.a(unit.o)
                              /usr/lib/gcc/i686-pc-cygwin/4.9.2/libgfortran.a(close.o) (_gfortrani_find_unit)
/usr/lib/gcc/i686-pc-cygwin/4.9.2/libgfortran.a(unix.o)
                              /usr/lib/gcc/i686-pc-cygwin/4.9.2/libgfortran.a(transfer.o) (_gfortrani_flush_if_preconnected)
/usr/lib/gcc/i686-pc-cygwin/4.9.2/libgfortran.a(write.o)
                              /usr/lib/gcc/i686-pc-cygwin/4.9.2/libgfortran.a(transfer.o) (_gfortrani_write_a)
/usr/lib/gcc/i686-pc-cygwin/4.9.2/libgfortran.a(fbuf.o)
                              /usr/lib/gcc/i686-pc-cygwin/4.9.2/libgfortran.a(open.o) (_gfortrani_fbuf_init)
/usr/lib/gcc/i686-pc-cygwin/4.9.2/libgfortran.a(args.o)
                              obj/getoptm.o (_gfortran_iargc)
/usr/lib/gcc/i686-pc-cygwin/4.9.2/libgfortran.a(chdir.o)
                              obj/gener.o (_gfortran_chdir_i4_sub)
/usr/lib/gcc/i686-pc-cygwin/4.9.2/libgfortran.a(date_and_time.o)
                              obj/gener.o (_gfortran_date_and_time)
/usr/lib/gcc/i686-pc-cygwin/4.9.2/libgfortran.a(string_intrinsics.o)
                              obj/imploc.o (_gfortran_compare_string)
/usr/lib/gcc/i686-pc-cygwin/4.9.2/libgfortran.a(random.o)
                              /usr/lib/gcc/i686-pc-cygwin/4.9.2/libgfortran.a(main.o) (_gfortran_random_seed_i4)
/usr/lib/gcc/i686-pc-cygwin/4.9.2/libgfortran.a(backtrace.o)
                              /usr/lib/gcc/i686-pc-cygwin/4.9.2/libgfortran.a(compile_options.o) (_gfortran_backtrace)
/usr/lib/gcc/i686-pc-cygwin/4.9.2/libgfortran.a(fpu.o)
                              /usr/lib/gcc/i686-pc-cygwin/4.9.2/libgfortran.a(main.o) (_gfortrani_set_fpu)
/usr/lib/gcc/i686-pc-cygwin/4.9.2/libgfortran.a(format.o)
                              /usr/lib/gcc/i686-pc-cygwin/4.9.2/libgfortran.a(transfer.o) (_gfortrani_free_format_data)
/usr/lib/gcc/i686-pc-cygwin/4.9.2/libgfortran.a(list_read.o)
                              /usr/lib/gcc/i686-pc-cygwin/4.9.2/libgfortran.a(transfer.o) (_gfortrani_list_formatted_read)
/usr/lib/gcc/i686-pc-cygwin/4.9.2/libgfortran.a(read.o)
                              /usr/lib/gcc/i686-pc-cygwin/4.9.2/libgfortran.a(list_read.o) (_gfortrani_set_integer)
/usr/lib/gcc/i686-pc-cygwin/4.9.2/libgfortran.a(size_from_kind.o)
                              /usr/lib/gcc/i686-pc-cygwin/4.9.2/libgfortran.a(transfer.o) (_gfortrani_size_from_real_kind)
/usr/lib/gcc/i686-pc-cygwin/4.9.2/libgcc.a(_chkstk_ms.o)
                              obj/imploc.o (__chkstk_ms)
/usr/lib/gcc/i686-pc-cygwin/4.9.2/libgcc.a(_divdi3.o)
                              /usr/lib/gcc/i686-pc-cygwin/4.9.2/libgfortran.a(open.o) (__divdi3)
/usr/lib/gcc/i686-pc-cygwin/4.9.2/libgcc.a(_udivdi3.o)
                              /usr/lib/gcc/i686-pc-cygwin/4.9.2/libgfortran.a(write.o) (__udivdi3)
/usr/lib/gcc/i686-pc-cygwin/4.9.2/libgcc.a(_umoddi3.o)
                              /usr/lib/gcc/i686-pc-cygwin/4.9.2/libgfortran.a(write.o) (__umoddi3)
/usr/lib/gcc/i686-pc-cygwin/4.9.2/libgcc.a(addtf3.o)
                              /usr/lib/gcc/i686-pc-cygwin/4.9.2/libgfortran.a(random.o) (__addtf3)
/usr/lib/gcc/i686-pc-cygwin/4.9.2/libgcc.a(divtf3.o)
                              /usr/lib/gcc/i686-pc-cygwin/4.9.2/libgfortran.a(write.o) (__divtf3)
/usr/lib/gcc/i686-pc-cygwin/4.9.2/libgcc.a(eqtf2.o)
                              /usr/lib/gcc/i686-pc-cygwin/4.9.2/libgfortran.a(write.o) (__eqtf2)
/usr/lib/gcc/i686-pc-cygwin/4.9.2/libgcc.a(getf2.o)
                              /usr/lib/gcc/i686-pc-cygwin/4.9.2/libgfortran.a(write.o) (__getf2)
/usr/lib/gcc/i686-pc-cygwin/4.9.2/libgcc.a(letf2.o)
                              /usr/lib/gcc/i686-pc-cygwin/4.9.2/libgfortran.a(write.o) (__lttf2)
/usr/lib/gcc/i686-pc-cygwin/4.9.2/libgcc.a(multf3.o)
                              /usr/lib/gcc/i686-pc-cygwin/4.9.2/libgfortran.a(write.o) (__multf3)
/usr/lib/gcc/i686-pc-cygwin/4.9.2/libgcc.a(subtf3.o)
                              /usr/lib/gcc/i686-pc-cygwin/4.9.2/libgfortran.a(write.o) (__subtf3)
/usr/lib/gcc/i686-pc-cygwin/4.9.2/libgcc.a(floatunditf.o)
                              /usr/lib/gcc/i686-pc-cygwin/4.9.2/libgfortran.a(random.o) (__floatunditf)
/usr/lib/gcc/i686-pc-cygwin/4.9.2/libgcc.a(sfp-exceptions.o)
                              /usr/lib/gcc/i686-pc-cygwin/4.9.2/libgcc.a(addtf3.o) (__sfp_handle_exceptions)
/usr/lib/gcc/i686-pc-cygwin/4.9.2/libgcc_eh.a(unwind-dw2.o)
                              /usr/lib/gcc/i686-pc-cygwin/4.9.2/libgfortran.a(backtrace.o) (_Unwind_GetIPInfo)
/usr/lib/gcc/i686-pc-cygwin/4.9.2/libgcc_eh.a(unwind-dw2-fde.o)
                              /usr/lib/gcc/i686-pc-cygwin/4.9.2/libgcc_eh.a(unwind-dw2.o) (_Unwind_Find_FDE)
/usr/lib/gcc/i686-pc-cygwin/4.9.2/libquadmath.a(isnanq.o)
                              /usr/lib/gcc/i686-pc-cygwin/4.9.2/libgfortran.a(write.o) (isnanq)
/usr/lib/gcc/i686-pc-cygwin/4.9.2/libquadmath.a(signbitq.o)
                              /usr/lib/gcc/i686-pc-cygwin/4.9.2/libgfortran.a(write.o) (signbitq)
/usr/lib/gcc/i686-pc-cygwin/4.9.2/libquadmath.a(finiteq.o)
                              /usr/lib/gcc/i686-pc-cygwin/4.9.2/libgfortran.a(write.o) (finiteq)
/usr/lib/gcc/i686-pc-cygwin/4.9.2/../../../libm.a(t-d000936.o)
                              obj/mlogit.o (exp)
/usr/lib/gcc/i686-pc-cygwin/4.9.2/../../../libm.a(t-d001018.o)
                              /usr/lib/gcc/i686-pc-cygwin/4.9.2/libgfortran.a(date_and_time.o) (fmod)
/usr/lib/gcc/i686-pc-cygwin/4.9.2/../../../libm.a(t-d001294.o)
                              obj/mlogit.o (log)
/usr/lib/gcc/i686-pc-cygwin/4.9.2/../../../libm.a(t-d001448.o)
                              obj/mlogit.o (pow)
/usr/lib/gcc/i686-pc-cygwin/4.9.2/../../../libcygwin.a(d000019.o)
                              (__imp____assert_func)
/usr/lib/gcc/i686-pc-cygwin/4.9.2/../../../libcygwin.a(d000025.o)
                              /usr/lib/gcc/i686-pc-cygwin/4.9.2/libgfortran.a(environ.o) (_imp____ctype_ptr__)
/usr/lib/gcc/i686-pc-cygwin/4.9.2/../../../libcygwin.a(d000026.o)
                              (__imp____cxa_atexit)
/usr/lib/gcc/i686-pc-cygwin/4.9.2/../../../libcygwin.a(d000040.o)
                              (__imp____errno)
/usr/lib/gcc/i686-pc-cygwin/4.9.2/../../../libcygwin.a(d000070.o)
                              (__imp____getreent)
/usr/lib/gcc/i686-pc-cygwin/4.9.2/../../../libcygwin.a(d000077.o)
                              (__imp____main)
/usr/lib/gcc/i686-pc-cygwin/4.9.2/../../../libcygwin.a(d000224.o)
                              (__imp___exit)
/usr/lib/gcc/i686-pc-cygwin/4.9.2/../../../libcygwin.a(d000682.o)
                              (__imp__abort)
/usr/lib/gcc/i686-pc-cygwin/4.9.2/../../../libcygwin.a(d000686.o)
                              (__imp__access)
/usr/lib/gcc/i686-pc-cygwin/4.9.2/../../../libcygwin.a(d000737.o)
                              (__imp__atoi)
/usr/lib/gcc/i686-pc-cygwin/4.9.2/../../../libcygwin.a(d000755.o)
                              (__imp__calloc)
/usr/lib/gcc/i686-pc-cygwin/4.9.2/../../../libcygwin.a(d000783.o)
                              (__imp__chdir)
/usr/lib/gcc/i686-pc-cygwin/4.9.2/../../../libcygwin.a(d000801.o)
                              (__imp__close)
/usr/lib/gcc/i686-pc-cygwin/4.9.2/../../../libcygwin.a(d000893.o)
                              (__imp__dup)
/usr/lib/gcc/i686-pc-cygwin/4.9.2/../../../libcygwin.a(d000894.o)
                              (__imp__dup2)
/usr/lib/gcc/i686-pc-cygwin/4.9.2/../../../libcygwin.a(d000932.o)
                              (__imp__execve)
/usr/lib/gcc/i686-pc-cygwin/4.9.2/../../../libcygwin.a(d000935.o)
                              (__imp__exit)
/usr/lib/gcc/i686-pc-cygwin/4.9.2/../../../libcygwin.a(d000936.o)
                              /usr/lib/gcc/i686-pc-cygwin/4.9.2/../../../libm.a(t-d000936.o) (_imp__exp)
/usr/lib/gcc/i686-pc-cygwin/4.9.2/../../../libcygwin.a(d000986.o)
                              (__imp__fflush)
/usr/lib/gcc/i686-pc-cygwin/4.9.2/../../../libcygwin.a(d001018.o)
                              /usr/lib/gcc/i686-pc-cygwin/4.9.2/../../../libm.a(t-d001018.o) (_imp__fmod)
/usr/lib/gcc/i686-pc-cygwin/4.9.2/../../../libcygwin.a(d001023.o)
                              (__imp__fork)
/usr/lib/gcc/i686-pc-cygwin/4.9.2/../../../libcygwin.a(d001038.o)
                              (__imp__free)
/usr/lib/gcc/i686-pc-cygwin/4.9.2/../../../libcygwin.a(d001051.o)
                              (__imp__fstat)
/usr/lib/gcc/i686-pc-cygwin/4.9.2/../../../libcygwin.a(d001060.o)
                              (__imp__ftruncate)
/usr/lib/gcc/i686-pc-cygwin/4.9.2/../../../libcygwin.a(d001099.o)
                              (__imp__getcwd)
/usr/lib/gcc/i686-pc-cygwin/4.9.2/../../../libcygwin.a(d001103.o)
                              (__imp__getegid)
/usr/lib/gcc/i686-pc-cygwin/4.9.2/../../../libcygwin.a(d001104.o)
                              (__imp__getenv)
/usr/lib/gcc/i686-pc-cygwin/4.9.2/../../../libcygwin.a(d001105.o)
                              (__imp__geteuid)
/usr/lib/gcc/i686-pc-cygwin/4.9.2/../../../libcygwin.a(d001106.o)
                              (__imp__getgid)
/usr/lib/gcc/i686-pc-cygwin/4.9.2/../../../libcygwin.a(d001161.o)
                              (__imp__gettimeofday)
/usr/lib/gcc/i686-pc-cygwin/4.9.2/../../../libcygwin.a(d001162.o)
                              (__imp__getuid)
/usr/lib/gcc/i686-pc-cygwin/4.9.2/../../../libcygwin.a(d001181.o)
                              (__imp__gmtime_r)
/usr/lib/gcc/i686-pc-cygwin/4.9.2/../../../libcygwin.a(d001227.o)
                              (__imp__isatty)
/usr/lib/gcc/i686-pc-cygwin/4.9.2/../../../libcygwin.a(d001292.o)
                              (__imp__localtime_r)
/usr/lib/gcc/i686-pc-cygwin/4.9.2/../../../libcygwin.a(d001294.o)
                              /usr/lib/gcc/i686-pc-cygwin/4.9.2/../../../libm.a(t-d001294.o) (_imp__log)
/usr/lib/gcc/i686-pc-cygwin/4.9.2/../../../libcygwin.a(d001317.o)
                              (__imp__lseek)
/usr/lib/gcc/i686-pc-cygwin/4.9.2/../../../libcygwin.a(d001323.o)
                              (__imp__malloc)
/usr/lib/gcc/i686-pc-cygwin/4.9.2/../../../libcygwin.a(d001340.o)
                              (__imp__memcmp)
/usr/lib/gcc/i686-pc-cygwin/4.9.2/../../../libcygwin.a(d001341.o)
                              (__imp__memcpy)
/usr/lib/gcc/i686-pc-cygwin/4.9.2/../../../libcygwin.a(d001343.o)
                              (__imp__memmove)
/usr/lib/gcc/i686-pc-cygwin/4.9.2/../../../libcygwin.a(d001346.o)
                              (__imp__memset)
/usr/lib/gcc/i686-pc-cygwin/4.9.2/../../../libcygwin.a(d001354.o)
                              (__imp__mkostemp)
/usr/lib/gcc/i686-pc-cygwin/4.9.2/../../../libcygwin.a(d001398.o)
                              (__imp__open)
/usr/lib/gcc/i686-pc-cygwin/4.9.2/../../../libcygwin.a(d001414.o)
                              (__imp__pipe)
/usr/lib/gcc/i686-pc-cygwin/4.9.2/../../../libcygwin.a(d001448.o)
                              /usr/lib/gcc/i686-pc-cygwin/4.9.2/../../../libm.a(t-d001448.o) (_imp__pow)
/usr/lib/gcc/i686-pc-cygwin/4.9.2/../../../libcygwin.a(d001509.o)
                              (__imp__pthread_mutex_destroy)
/usr/lib/gcc/i686-pc-cygwin/4.9.2/../../../libcygwin.a(d001512.o)
                              (__imp__pthread_mutex_lock)
/usr/lib/gcc/i686-pc-cygwin/4.9.2/../../../libcygwin.a(d001514.o)
                              (__imp__pthread_mutex_trylock)
/usr/lib/gcc/i686-pc-cygwin/4.9.2/../../../libcygwin.a(d001515.o)
                              (__imp__pthread_mutex_unlock)
/usr/lib/gcc/i686-pc-cygwin/4.9.2/../../../libcygwin.a(d001526.o)
                              (__imp__pthread_once)
/usr/lib/gcc/i686-pc-cygwin/4.9.2/../../../libcygwin.a(d001574.o)
                              (__imp__raise)
/usr/lib/gcc/i686-pc-cygwin/4.9.2/../../../libcygwin.a(d001581.o)
                              (__imp__read)
/usr/lib/gcc/i686-pc-cygwin/4.9.2/../../../libcygwin.a(d001584.o)
                              (__imp__readlink)
/usr/lib/gcc/i686-pc-cygwin/4.9.2/../../../libcygwin.a(d001587.o)
                              (__imp__realloc)
/usr/lib/gcc/i686-pc-cygwin/4.9.2/../../../libcygwin.a(d001737.o)
                              (__imp__signal)
/usr/lib/gcc/i686-pc-cygwin/4.9.2/../../../libcygwin.a(d001757.o)
                              (__imp__snprintf)
/usr/lib/gcc/i686-pc-cygwin/4.9.2/../../../libcygwin.a(d001777.o)
                              (__imp__stat)
/usr/lib/gcc/i686-pc-cygwin/4.9.2/../../../libcygwin.a(d001786.o)
                              (__imp__strchr)
/usr/lib/gcc/i686-pc-cygwin/4.9.2/../../../libcygwin.a(d001788.o)
                              (__imp__strcmp)
/usr/lib/gcc/i686-pc-cygwin/4.9.2/../../../libcygwin.a(d001792.o)
                              (__imp__strdup)
/usr/lib/gcc/i686-pc-cygwin/4.9.2/../../../libcygwin.a(d001794.o)
                              (__imp__strerror_r)
/usr/lib/gcc/i686-pc-cygwin/4.9.2/../../../libcygwin.a(d001799.o)
                              (__imp__strlen)
/usr/lib/gcc/i686-pc-cygwin/4.9.2/../../../libcygwin.a(d001801.o)
                              (__imp__strncasecmp)
/usr/lib/gcc/i686-pc-cygwin/4.9.2/../../../libcygwin.a(d001803.o)
                              (__imp__strncmp)
/usr/lib/gcc/i686-pc-cygwin/4.9.2/../../../libcygwin.a(d001814.o)
                              (__imp__strtod)
/usr/lib/gcc/i686-pc-cygwin/4.9.2/../../../libcygwin.a(d001816.o)
                              (__imp__strtof)
/usr/lib/gcc/i686-pc-cygwin/4.9.2/../../../libcygwin.a(d001819.o)
                              (__imp__strtok_r)
/usr/lib/gcc/i686-pc-cygwin/4.9.2/../../../libcygwin.a(d001821.o)
                              (__imp__strtold)
/usr/lib/gcc/i686-pc-cygwin/4.9.2/../../../libcygwin.a(d001863.o)
                              (__imp__time)
/usr/lib/gcc/i686-pc-cygwin/4.9.2/../../../libcygwin.a(d001875.o)
                              (__imp__tolower)
/usr/lib/gcc/i686-pc-cygwin/4.9.2/../../../libcygwin.a(d001876.o)
                              (__imp__toupper)
/usr/lib/gcc/i686-pc-cygwin/4.9.2/../../../libcygwin.a(d001885.o)
                              (__imp__ttyname_r)
/usr/lib/gcc/i686-pc-cygwin/4.9.2/../../../libcygwin.a(d001890.o)
                              (__imp__umask)
/usr/lib/gcc/i686-pc-cygwin/4.9.2/../../../libcygwin.a(d001895.o)
                              (__imp__unlink)
/usr/lib/gcc/i686-pc-cygwin/4.9.2/../../../libcygwin.a(d001925.o)
                              (__imp__vsnprintf)
/usr/lib/gcc/i686-pc-cygwin/4.9.2/../../../libcygwin.a(d001936.o)
                              (__imp__wait)
/usr/lib/gcc/i686-pc-cygwin/4.9.2/../../../libcygwin.a(d001994.o)
                              (__imp__write)
/usr/lib/gcc/i686-pc-cygwin/4.9.2/../../../libcygwin.a(t-d000019.o)
                              /usr/lib/gcc/i686-pc-cygwin/4.9.2/libgfortran.a(error.o) (__assert_func)
/usr/lib/gcc/i686-pc-cygwin/4.9.2/../../../libcygwin.a(t-d000026.o)
                              /usr/lib/gcc/i686-pc-cygwin/4.9.2/crtbegin.o (__cxa_atexit)
/usr/lib/gcc/i686-pc-cygwin/4.9.2/../../../libcygwin.a(t-d000040.o)
                              /usr/lib/gcc/i686-pc-cygwin/4.9.2/libgfortran.a(error.o) (__errno)
/usr/lib/gcc/i686-pc-cygwin/4.9.2/../../../libcygwin.a(t-d000070.o)
                              /usr/lib/gcc/i686-pc-cygwin/4.9.2/libgfortran.a(unix.o) (__getreent)
/usr/lib/gcc/i686-pc-cygwin/4.9.2/../../../libcygwin.a(t-d000077.o)
                              obj/imploc.o (__main)
/usr/lib/gcc/i686-pc-cygwin/4.9.2/../../../libcygwin.a(t-d000224.o)
                              /usr/lib/gcc/i686-pc-cygwin/4.9.2/libgfortran.a(backtrace.o) (_exit)
/usr/lib/gcc/i686-pc-cygwin/4.9.2/../../../libcygwin.a(t-d000682.o)
                              /usr/lib/gcc/i686-pc-cygwin/4.9.2/libgfortran.a(error.o) (abort)
/usr/lib/gcc/i686-pc-cygwin/4.9.2/../../../libcygwin.a(t-d000686.o)
                              /usr/lib/gcc/i686-pc-cygwin/4.9.2/libgfortran.a(main.o) (access)
/usr/lib/gcc/i686-pc-cygwin/4.9.2/../../../libcygwin.a(t-d000737.o)
                              /usr/lib/gcc/i686-pc-cygwin/4.9.2/libgfortran.a(environ.o) (atoi)
/usr/lib/gcc/i686-pc-cygwin/4.9.2/../../../libcygwin.a(t-d000755.o)
                              /usr/lib/gcc/i686-pc-cygwin/4.9.2/libgfortran.a(memory.o) (calloc)
/usr/lib/gcc/i686-pc-cygwin/4.9.2/../../../libcygwin.a(t-d000783.o)
                              /usr/lib/gcc/i686-pc-cygwin/4.9.2/libgfortran.a(chdir.o) (chdir)
/usr/lib/gcc/i686-pc-cygwin/4.9.2/../../../libcygwin.a(t-d000801.o)
                              /usr/lib/gcc/i686-pc-cygwin/4.9.2/libgfortran.a(unix.o) (close)
/usr/lib/gcc/i686-pc-cygwin/4.9.2/../../../libcygwin.a(t-d000893.o)
                              /usr/lib/gcc/i686-pc-cygwin/4.9.2/libgfortran.a(unix.o) (dup)
/usr/lib/gcc/i686-pc-cygwin/4.9.2/../../../libcygwin.a(t-d000894.o)
                              /usr/lib/gcc/i686-pc-cygwin/4.9.2/libgfortran.a(backtrace.o) (dup2)
/usr/lib/gcc/i686-pc-cygwin/4.9.2/../../../libcygwin.a(t-d000932.o)
                              /usr/lib/gcc/i686-pc-cygwin/4.9.2/libgfortran.a(backtrace.o) (execve)
/usr/lib/gcc/i686-pc-cygwin/4.9.2/../../../libcygwin.a(t-d000935.o)
                              /usr/lib/gcc/i686-pc-cygwin/4.9.2/libgfortran.a(environ.o) (exit)
/usr/lib/gcc/i686-pc-cygwin/4.9.2/../../../libcygwin.a(t-d000986.o)
                              /usr/lib/gcc/i686-pc-cygwin/4.9.2/libgfortran.a(unix.o) (fflush)
/usr/lib/gcc/i686-pc-cygwin/4.9.2/../../../libcygwin.a(t-d001023.o)
                              /usr/lib/gcc/i686-pc-cygwin/4.9.2/libgfortran.a(backtrace.o) (fork)
/usr/lib/gcc/i686-pc-cygwin/4.9.2/../../../libcygwin.a(t-d001038.o)
                              obj/imploc.o (free)
/usr/lib/gcc/i686-pc-cygwin/4.9.2/../../../libcygwin.a(t-d001051.o)
                              /usr/lib/gcc/i686-pc-cygwin/4.9.2/libgfortran.a(unix.o) (fstat)
/usr/lib/gcc/i686-pc-cygwin/4.9.2/../../../libcygwin.a(t-d001060.o)
                              /usr/lib/gcc/i686-pc-cygwin/4.9.2/libgfortran.a(unix.o) (ftruncate)
/usr/lib/gcc/i686-pc-cygwin/4.9.2/../../../libcygwin.a(t-d001099.o)
                              /usr/lib/gcc/i686-pc-cygwin/4.9.2/libgfortran.a(main.o) (getcwd)
/usr/lib/gcc/i686-pc-cygwin/4.9.2/../../../libcygwin.a(t-d001103.o)
                              /usr/lib/gcc/i686-pc-cygwin/4.9.2/libgfortran.a(environ.o) (getegid)
/usr/lib/gcc/i686-pc-cygwin/4.9.2/../../../libcygwin.a(t-d001104.o)
                              /usr/lib/gcc/i686-pc-cygwin/4.9.2/libgfortran.a(environ.o) (getenv)
/usr/lib/gcc/i686-pc-cygwin/4.9.2/../../../libcygwin.a(t-d001105.o)
                              /usr/lib/gcc/i686-pc-cygwin/4.9.2/libgfortran.a(environ.o) (geteuid)
/usr/lib/gcc/i686-pc-cygwin/4.9.2/../../../libcygwin.a(t-d001106.o)
                              /usr/lib/gcc/i686-pc-cygwin/4.9.2/libgfortran.a(environ.o) (getgid)
/usr/lib/gcc/i686-pc-cygwin/4.9.2/../../../libcygwin.a(t-d001161.o)
                              /usr/lib/gcc/i686-pc-cygwin/4.9.2/libgfortran.a(date_and_time.o) (gettimeofday)
/usr/lib/gcc/i686-pc-cygwin/4.9.2/../../../libcygwin.a(t-d001162.o)
                              /usr/lib/gcc/i686-pc-cygwin/4.9.2/libgfortran.a(environ.o) (getuid)
/usr/lib/gcc/i686-pc-cygwin/4.9.2/../../../libcygwin.a(t-d001181.o)
                              /usr/lib/gcc/i686-pc-cygwin/4.9.2/libgfortran.a(date_and_time.o) (gmtime_r)
/usr/lib/gcc/i686-pc-cygwin/4.9.2/../../../libcygwin.a(t-d001227.o)
                              /usr/lib/gcc/i686-pc-cygwin/4.9.2/libgfortran.a(unix.o) (isatty)
/usr/lib/gcc/i686-pc-cygwin/4.9.2/../../../libcygwin.a(t-d001292.o)
                              /usr/lib/gcc/i686-pc-cygwin/4.9.2/libgfortran.a(date_and_time.o) (localtime_r)
/usr/lib/gcc/i686-pc-cygwin/4.9.2/../../../libcygwin.a(t-d001317.o)
                              /usr/lib/gcc/i686-pc-cygwin/4.9.2/libgfortran.a(unix.o) (lseek)
/usr/lib/gcc/i686-pc-cygwin/4.9.2/../../../libcygwin.a(t-d001323.o)
                              obj/imploc.o (malloc)
/usr/lib/gcc/i686-pc-cygwin/4.9.2/../../../libcygwin.a(t-d001340.o)
                              obj/imploc.o (memcmp)
/usr/lib/gcc/i686-pc-cygwin/4.9.2/../../../libcygwin.a(t-d001341.o)
                              obj/io_list.o (memcpy)
/usr/lib/gcc/i686-pc-cygwin/4.9.2/../../../libcygwin.a(t-d001343.o)
                              obj/getoptm.o (memmove)
/usr/lib/gcc/i686-pc-cygwin/4.9.2/../../../libcygwin.a(t-d001346.o)
                              obj/imploc.o (memset)
/usr/lib/gcc/i686-pc-cygwin/4.9.2/../../../libcygwin.a(t-d001354.o)
                              /usr/lib/gcc/i686-pc-cygwin/4.9.2/libgfortran.a(unix.o) (mkostemp)
/usr/lib/gcc/i686-pc-cygwin/4.9.2/../../../libcygwin.a(t-d001398.o)
                              /usr/lib/gcc/i686-pc-cygwin/4.9.2/libgfortran.a(unix.o) (open)
/usr/lib/gcc/i686-pc-cygwin/4.9.2/../../../libcygwin.a(t-d001414.o)
                              /usr/lib/gcc/i686-pc-cygwin/4.9.2/libgfortran.a(backtrace.o) (pipe)
/usr/lib/gcc/i686-pc-cygwin/4.9.2/../../../libcygwin.a(t-d001509.o)
                              /usr/lib/gcc/i686-pc-cygwin/4.9.2/libgfortran.a(unit.o) (pthread_mutex_destroy)
/usr/lib/gcc/i686-pc-cygwin/4.9.2/../../../libcygwin.a(t-d001512.o)
                              /usr/lib/gcc/i686-pc-cygwin/4.9.2/libgfortran.a(unit.o) (pthread_mutex_lock)
/usr/lib/gcc/i686-pc-cygwin/4.9.2/../../../libcygwin.a(t-d001514.o)
                              /usr/lib/gcc/i686-pc-cygwin/4.9.2/libgfortran.a(unit.o) (pthread_mutex_trylock)
/usr/lib/gcc/i686-pc-cygwin/4.9.2/../../../libcygwin.a(t-d001515.o)
                              /usr/lib/gcc/i686-pc-cygwin/4.9.2/libgfortran.a(unit.o) (pthread_mutex_unlock)
/usr/lib/gcc/i686-pc-cygwin/4.9.2/../../../libcygwin.a(t-d001526.o)
                              /usr/lib/gcc/i686-pc-cygwin/4.9.2/libgcc_eh.a(unwind-dw2.o) (pthread_once)
/usr/lib/gcc/i686-pc-cygwin/4.9.2/../../../libcygwin.a(t-d001574.o)
                              /usr/lib/gcc/i686-pc-cygwin/4.9.2/libgfortran.a(compile_options.o) (raise)
/usr/lib/gcc/i686-pc-cygwin/4.9.2/../../../libcygwin.a(t-d001581.o)
                              /usr/lib/gcc/i686-pc-cygwin/4.9.2/libgfortran.a(unix.o) (read)
/usr/lib/gcc/i686-pc-cygwin/4.9.2/../../../libcygwin.a(t-d001584.o)
                              /usr/lib/gcc/i686-pc-cygwin/4.9.2/libgfortran.a(main.o) (readlink)
/usr/lib/gcc/i686-pc-cygwin/4.9.2/../../../libcygwin.a(t-d001587.o)
                              /usr/lib/gcc/i686-pc-cygwin/4.9.2/libgfortran.a(fbuf.o) (realloc)
/usr/lib/gcc/i686-pc-cygwin/4.9.2/../../../libcygwin.a(t-d001737.o)
                              /usr/lib/gcc/i686-pc-cygwin/4.9.2/libgfortran.a(compile_options.o) (signal)
/usr/lib/gcc/i686-pc-cygwin/4.9.2/../../../libcygwin.a(t-d001757.o)
                              /usr/lib/gcc/i686-pc-cygwin/4.9.2/libgfortran.a(main.o) (snprintf)
/usr/lib/gcc/i686-pc-cygwin/4.9.2/../../../libcygwin.a(t-d001777.o)
                              /usr/lib/gcc/i686-pc-cygwin/4.9.2/libgfortran.a(unix.o) (stat)
/usr/lib/gcc/i686-pc-cygwin/4.9.2/../../../libcygwin.a(t-d001786.o)
                              /usr/lib/gcc/i686-pc-cygwin/4.9.2/libgfortran.a(format.o) (strchr)
/usr/lib/gcc/i686-pc-cygwin/4.9.2/../../../libcygwin.a(t-d001788.o)
                              /usr/lib/gcc/i686-pc-cygwin/4.9.2/libgfortran.a(list_read.o) (strcmp)
/usr/lib/gcc/i686-pc-cygwin/4.9.2/../../../libcygwin.a(t-d001792.o)
                              /usr/lib/gcc/i686-pc-cygwin/4.9.2/libgfortran.a(main.o) (strdup)
/usr/lib/gcc/i686-pc-cygwin/4.9.2/../../../libcygwin.a(t-d001794.o)
                              /usr/lib/gcc/i686-pc-cygwin/4.9.2/libgfortran.a(error.o) (strerror_r)
/usr/lib/gcc/i686-pc-cygwin/4.9.2/../../../libcygwin.a(t-d001799.o)
                              /usr/lib/gcc/i686-pc-cygwin/4.9.2/libgfortran.a(environ.o) (strlen)
/usr/lib/gcc/i686-pc-cygwin/4.9.2/../../../libcygwin.a(t-d001801.o)
                              /usr/lib/gcc/i686-pc-cygwin/4.9.2/libgfortran.a(environ.o) (strncasecmp)
/usr/lib/gcc/i686-pc-cygwin/4.9.2/../../../libcygwin.a(t-d001803.o)
                              /usr/lib/gcc/i686-pc-cygwin/4.9.2/libgfortran.a(write.o) (strncmp)
/usr/lib/gcc/i686-pc-cygwin/4.9.2/../../../libcygwin.a(t-d001814.o)
                              /usr/lib/gcc/i686-pc-cygwin/4.9.2/libgfortran.a(read.o) (strtod)
/usr/lib/gcc/i686-pc-cygwin/4.9.2/../../../libcygwin.a(t-d001816.o)
                              /usr/lib/gcc/i686-pc-cygwin/4.9.2/libgfortran.a(read.o) (strtof)
/usr/lib/gcc/i686-pc-cygwin/4.9.2/../../../libcygwin.a(t-d001819.o)
                              /usr/lib/gcc/i686-pc-cygwin/4.9.2/libgfortran.a(main.o) (strtok_r)
/usr/lib/gcc/i686-pc-cygwin/4.9.2/../../../libcygwin.a(t-d001821.o)
                              /usr/lib/gcc/i686-pc-cygwin/4.9.2/libgfortran.a(read.o) (strtold)
/usr/lib/gcc/i686-pc-cygwin/4.9.2/../../../libcygwin.a(t-d001863.o)
                              /usr/lib/gcc/i686-pc-cygwin/4.9.2/libgfortran.a(date_and_time.o) (time)
/usr/lib/gcc/i686-pc-cygwin/4.9.2/../../../libcygwin.a(t-d001875.o)
                              /usr/lib/gcc/i686-pc-cygwin/4.9.2/libgfortran.a(list_read.o) (tolower)
/usr/lib/gcc/i686-pc-cygwin/4.9.2/../../../libcygwin.a(t-d001876.o)
                              /usr/lib/gcc/i686-pc-cygwin/4.9.2/libgfortran.a(write.o) (toupper)
/usr/lib/gcc/i686-pc-cygwin/4.9.2/../../../libcygwin.a(t-d001885.o)
                              /usr/lib/gcc/i686-pc-cygwin/4.9.2/libgfortran.a(unix.o) (ttyname_r)
/usr/lib/gcc/i686-pc-cygwin/4.9.2/../../../libcygwin.a(t-d001890.o)
                              /usr/lib/gcc/i686-pc-cygwin/4.9.2/libgfortran.a(unix.o) (umask)
/usr/lib/gcc/i686-pc-cygwin/4.9.2/../../../libcygwin.a(t-d001895.o)
                              /usr/lib/gcc/i686-pc-cygwin/4.9.2/libgfortran.a(unix.o) (unlink)
/usr/lib/gcc/i686-pc-cygwin/4.9.2/../../../libcygwin.a(t-d001925.o)
                              /usr/lib/gcc/i686-pc-cygwin/4.9.2/libgfortran.a(error.o) (vsnprintf)
/usr/lib/gcc/i686-pc-cygwin/4.9.2/../../../libcygwin.a(t-d001936.o)
                              /usr/lib/gcc/i686-pc-cygwin/4.9.2/libgfortran.a(backtrace.o) (wait)
/usr/lib/gcc/i686-pc-cygwin/4.9.2/../../../libcygwin.a(t-d001994.o)
                              /usr/lib/gcc/i686-pc-cygwin/4.9.2/libgfortran.a(error.o) (write)
/usr/lib/gcc/i686-pc-cygwin/4.9.2/../../../libcygwin.a(cygwin_crt0.o)
                              /usr/lib/gcc/i686-pc-cygwin/4.9.2/../../../crt0.o (cygwin_crt0)
/usr/lib/gcc/i686-pc-cygwin/4.9.2/../../../libcygwin.a(premain0.o)
                              /usr/lib/gcc/i686-pc-cygwin/4.9.2/../../../crt0.o (cygwin_premain0)
/usr/lib/gcc/i686-pc-cygwin/4.9.2/../../../libcygwin.a(premain1.o)
                              /usr/lib/gcc/i686-pc-cygwin/4.9.2/../../../crt0.o (cygwin_premain1)
/usr/lib/gcc/i686-pc-cygwin/4.9.2/../../../libcygwin.a(premain2.o)
                              /usr/lib/gcc/i686-pc-cygwin/4.9.2/../../../crt0.o (cygwin_premain2)
/usr/lib/gcc/i686-pc-cygwin/4.9.2/../../../libcygwin.a(premain3.o)
                              /usr/lib/gcc/i686-pc-cygwin/4.9.2/../../../crt0.o (cygwin_premain3)
/usr/lib/gcc/i686-pc-cygwin/4.9.2/../../../libcygwin.a(d000000.o)
                              /usr/lib/gcc/i686-pc-cygwin/4.9.2/../../../libcygwin.a(d000019.o) (_head_cygwin1_dll)
/usr/lib/gcc/i686-pc-cygwin/4.9.2/../../../libcygwin.a(d000200.o)
                              /usr/lib/gcc/i686-pc-cygwin/4.9.2/../../../libcygwin.a(cygwin_crt0.o) (_imp___dll_crt0@0)
/usr/lib/gcc/i686-pc-cygwin/4.9.2/../../../libcygwin.a(d000312.o)
                              /usr/lib/gcc/i686-pc-cygwin/4.9.2/../../../libcygwin.a(t-d001051.o) (_imp___fstat64)
/usr/lib/gcc/i686-pc-cygwin/4.9.2/../../../libcygwin.a(d000321.o)
                              /usr/lib/gcc/i686-pc-cygwin/4.9.2/../../../libcygwin.a(t-d001060.o) (_imp___ftruncate64)
/usr/lib/gcc/i686-pc-cygwin/4.9.2/../../../libcygwin.a(d000338.o)
                              /usr/lib/gcc/i686-pc-cygwin/4.9.2/../../../libcygwin.a(t-d001103.o) (_imp___getegid32)
/usr/lib/gcc/i686-pc-cygwin/4.9.2/../../../libcygwin.a(d000341.o)
                              /usr/lib/gcc/i686-pc-cygwin/4.9.2/../../../libcygwin.a(t-d001105.o) (_imp___geteuid32)
/usr/lib/gcc/i686-pc-cygwin/4.9.2/../../../libcygwin.a(d000343.o)
                              /usr/lib/gcc/i686-pc-cygwin/4.9.2/../../../libcygwin.a(t-d001106.o) (_imp___getgid32)
/usr/lib/gcc/i686-pc-cygwin/4.9.2/../../../libcygwin.a(d000372.o)
                              /usr/lib/gcc/i686-pc-cygwin/4.9.2/../../../libcygwin.a(t-d001162.o) (_imp___getuid32)
/usr/lib/gcc/i686-pc-cygwin/4.9.2/../../../libcygwin.a(d000444.o)
                              /usr/lib/gcc/i686-pc-cygwin/4.9.2/../../../libcygwin.a(t-d001317.o) (_imp___lseek64)
/usr/lib/gcc/i686-pc-cygwin/4.9.2/../../../libcygwin.a(d000479.o)
                              /usr/lib/gcc/i686-pc-cygwin/4.9.2/../../../libcygwin.a(t-d001398.o) (_imp___open64)
/usr/lib/gcc/i686-pc-cygwin/4.9.2/../../../libcygwin.a(d000582.o)
                              /usr/lib/gcc/i686-pc-cygwin/4.9.2/../../../libcygwin.a(t-d001777.o) (_imp___stat64)
/usr/lib/gcc/i686-pc-cygwin/4.9.2/../../../libcygwin.a(d002050.o)
                              /usr/lib/gcc/i686-pc-cygwin/4.9.2/../../../libcygwin.a(d000000.o) (cygwin1_dll_iname)
/usr/lib/gcc/i686-pc-cygwin/4.9.2/../../../libcygwin.a(_cygwin_crt0_common.o)
                              /usr/lib/gcc/i686-pc-cygwin/4.9.2/../../../libcygwin.a(cygwin_crt0.o) (_cygwin_crt0_common@8)
/usr/lib/gcc/i686-pc-cygwin/4.9.2/../../../libcygwin.a(dll_entry.o)
                              /usr/lib/gcc/i686-pc-cygwin/4.9.2/../../../libcygwin.a(_cygwin_crt0_common.o) (__dynamically_loaded)
/usr/lib/gcc/i686-pc-cygwin/4.9.2/../../../libcygwin.a(dll_main.o)
                              /usr/lib/gcc/i686-pc-cygwin/4.9.2/../../../libcygwin.a(dll_entry.o) (DllMain@12)
/usr/lib/gcc/i686-pc-cygwin/4.9.2/../../../libcygwin.a(pseudo-reloc-dummy.o)
                              /usr/lib/gcc/i686-pc-cygwin/4.9.2/../../../libcygwin.a(_cygwin_crt0_common.o) (_pei386_runtime_relocator)
/usr/lib/gcc/i686-pc-cygwin/4.9.2/../../../libcygwin.a(d000385.o)
                              /usr/lib/gcc/i686-pc-cygwin/4.9.2/../../../libcygwin.a(_cygwin_crt0_common.o) (_imp___impure_ptr)
/usr/lib/gcc/i686-pc-cygwin/4.9.2/../../../libcygwin.a(d000858.o)
                              (__imp__cygwin_detach_dll)
/usr/lib/gcc/i686-pc-cygwin/4.9.2/../../../libcygwin.a(d000860.o)
                              (__imp__cygwin_internal)
/usr/lib/gcc/i686-pc-cygwin/4.9.2/../../../libcygwin.a(d001421.o)
                              (__imp__posix_memalign)
/usr/lib/gcc/i686-pc-cygwin/4.9.2/../../../libcygwin.a(t-d000858.o)
                              /usr/lib/gcc/i686-pc-cygwin/4.9.2/../../../libcygwin.a(dll_entry.o) (cygwin_detach_dll)
/usr/lib/gcc/i686-pc-cygwin/4.9.2/../../../libcygwin.a(t-d000860.o)
                              /usr/lib/gcc/i686-pc-cygwin/4.9.2/../../../libcygwin.a(_cygwin_crt0_common.o) (cygwin_internal)
/usr/lib/gcc/i686-pc-cygwin/4.9.2/../../../libcygwin.a(t-d001421.o)
                              /usr/lib/gcc/i686-pc-cygwin/4.9.2/../../../libcygwin.a(_cygwin_crt0_common.o) (posix_memalign)
/usr/lib/gcc/i686-pc-cygwin/4.9.2/../../../libcygwin.a(cygwin_attach_dll.o)
                              /usr/lib/gcc/i686-pc-cygwin/4.9.2/../../../libcygwin.a(dll_entry.o) (cygwin_attach_dll)
/usr/lib/gcc/i686-pc-cygwin/4.9.2/../../../libcygwin.a(d000881.o)
                              (__imp__dll_dllcrt0)
/usr/lib/gcc/i686-pc-cygwin/4.9.2/../../../libcygwin.a(t-d000881.o)
                              /usr/lib/gcc/i686-pc-cygwin/4.9.2/../../../libcygwin.a(cygwin_attach_dll.o) (dll_dllcrt0)
/usr/lib/w32api/libkernel32.a(dwfms00581.o)
                              /usr/lib/gcc/i686-pc-cygwin/4.9.2/crtbegin.o (_imp__GetProcAddress@8)
/usr/lib/w32api/libkernel32.a(dwfms00533.o)
                              /usr/lib/gcc/i686-pc-cygwin/4.9.2/../../../libcygwin.a(_cygwin_crt0_common.o) (GetModuleHandleA@4)
/usr/lib/w32api/libkernel32.a(dwfmh.o)
                              /usr/lib/w32api/libkernel32.a(dwfms00581.o) (_head_lib32_libkernel32_a)
/usr/lib/w32api/libkernel32.a(dwfmt.o)
                              /usr/lib/w32api/libkernel32.a(dwfmh.o) (_lib32_libkernel32_a_iname)
/usr/lib/gcc/i686-pc-cygwin/4.9.2/libgcc.a(_ctors.o)
                              /usr/lib/gcc/i686-pc-cygwin/4.9.2/../../../libcygwin.a(_cygwin_crt0_common.o) (__DTOR_LIST__)

Allocating common symbols
Common symbol       size              file

__DTOR_LIST__       0x8               /usr/lib/gcc/i686-pc-cygwin/4.9.2/libgcc.a(_ctors.o)
_gfortrani_compile_options
                    0x28              /usr/lib/gcc/i686-pc-cygwin/4.9.2/libgfortran.a(compile_options.o)
_gfortrani_options  0x30              /usr/lib/gcc/i686-pc-cygwin/4.9.2/libgfortran.a(environ.o)
_gfortrani_max_offset
                    0x8               /usr/lib/gcc/i686-pc-cygwin/4.9.2/libgfortran.a(unit.o)
__CTOR_LIST__       0x8               /usr/lib/gcc/i686-pc-cygwin/4.9.2/libgcc.a(_ctors.o)
addr2line_path      0x4               /usr/lib/gcc/i686-pc-cygwin/4.9.2/libgfortran.a(main.o)
_gfortrani_unit_root
                    0x4               /usr/lib/gcc/i686-pc-cygwin/4.9.2/libgfortran.a(unit.o)

Discarded input sections

 .drectve       0x00000000       0x2c /usr/lib/gcc/i686-pc-cygwin/4.9.2/libgfortran.a(compile_options.o)
 .drectve       0x00000000       0x24 /usr/lib/gcc/i686-pc-cygwin/4.9.2/libgfortran.a(environ.o)
 .drectve       0x00000000       0x20 /usr/lib/gcc/i686-pc-cygwin/4.9.2/libgfortran.a(main.o)
 .drectve       0x00000000       0x4c /usr/lib/gcc/i686-pc-cygwin/4.9.2/libgfortran.a(unit.o)
 .text          0x00000000        0x8 /usr/lib/w32api/libkernel32.a(dwfms00581.o)
 .drectve       0x00000000       0x3c /usr/lib/gcc/i686-pc-cygwin/4.9.2/libgcc.a(_ctors.o)

Memory Configuration

Name             Origin             Length             Attributes
*default*        0x00000000         0xffffffff

Linker script and memory map

                0x00400000                __image_base__ = 0x400000
                0x00000000                __dll__ = 0x0
                0x00400000                ___ImageBase = 0x400000
                0x00001000                __section_alignment__ = 0x1000
                0x00000200                __file_alignment__ = 0x200
                0x00000004                __major_os_version__ = 0x4
                0x00000000                __minor_os_version__ = 0x0
                0x00000001                __major_image_version__ = 0x1
                0x00000000                __minor_image_version__ = 0x0
                0x00000004                __major_subsystem_version__ = 0x4
                0x00000000                __minor_subsystem_version__ = 0x0
                0x00000003                __subsystem__ = 0x3
                0x00200000                __size_of_stack_reserve__ = 0x200000
                0x00001000                __size_of_stack_commit__ = 0x1000
                0x00100000                __size_of_heap_reserve__ = 0x100000
                0x00001000                __size_of_heap_commit__ = 0x1000
                0x00000000                __loader_flags__ = 0x0
                0x00008000                __dll_characteristics__ = 0x8000
LOAD /usr/lib/gcc/i686-pc-cygwin/4.9.2/../../../crt0.o
LOAD /usr/lib/gcc/i686-pc-cygwin/4.9.2/crtbegin.o
LOAD obj/imploc.o
LOAD obj/io_list.o
LOAD obj/mensamod.o
LOAD obj/zcomm.o
LOAD obj/getoptm.o
LOAD obj/mlogit.o
LOAD obj/mpowit.o
LOAD obj/distribm.o
LOAD obj/lcomm.o
LOAD obj/control.o
LOAD obj/gener.o
LOAD obj/param.o
LOAD obj/lparc.o
LOAD obj/optionsm.o
LOAD obj/debugm.o
LOAD /usr/lib/gcc/i686-pc-cygwin/4.9.2/libgfortran.a
LOAD /usr/lib/gcc/i686-pc-cygwin/4.9.2/libgcc.a
LOAD /usr/lib/gcc/i686-pc-cygwin/4.9.2/libgcc_eh.a
LOAD /usr/lib/gcc/i686-pc-cygwin/4.9.2/libquadmath.a
LOAD /usr/lib/gcc/i686-pc-cygwin/4.9.2/../../../libm.a
LOAD /usr/lib/gcc/i686-pc-cygwin/4.9.2/libgcc.a
LOAD /usr/lib/gcc/i686-pc-cygwin/4.9.2/libgcc_eh.a
LOAD /usr/lib/gcc/i686-pc-cygwin/4.9.2/../../../libcygwin.a
LOAD /usr/lib/w32api/libadvapi32.a
LOAD /usr/lib/w32api/libshell32.a
LOAD /usr/lib/w32api/libuser32.a
LOAD /usr/lib/w32api/libkernel32.a
LOAD /usr/lib/gcc/i686-pc-cygwin/4.9.2/libgcc.a
LOAD /usr/lib/gcc/i686-pc-cygwin/4.9.2/libgcc_eh.a
LOAD /usr/lib/gcc/i686-pc-cygwin/4.9.2/../../../default-manifest.o
LOAD /usr/lib/gcc/i686-pc-cygwin/4.9.2/crtend.o
                0x00000420                . = SIZEOF_HEADERS
                0x00001000                . = ALIGN (__section_alignment__)

.text           0x00401000    0x40a00
 *(.init)
 *(.text)
 .text          0x00401000       0x90 /usr/lib/gcc/i686-pc-cygwin/4.9.2/../../../crt0.o
                0x00401000                WinMainCRTStartup
                0x00401000                mainCRTStartup
 .text          0x00401090      0x110 /usr/lib/gcc/i686-pc-cygwin/4.9.2/crtbegin.o
                0x00401090                __gcc_register_frame
                0x00401180                __gcc_deregister_frame
 .text          0x004011a0     0x4db0 obj/imploc.o
                0x004011a0                usage_
 .text          0x00405f50     0x1290 obj/io_list.o
                0x00406360                __io_list_MOD_checkread
                0x00406400                __io_list_MOD_checklistitem
                0x00406620                __io_list_MOD_checklistend
                0x00406840                __io_list_MOD_checklistbegin
                0x00406c40                __io_list_MOD_readlistbegin
                0x00406e70                __io_list_MOD_iocheckeq
                0x00406eb0                __io_list_MOD_ioassert
                0x00407070                __io_list_MOD_writelistitem
                0x004070e0                __io_list_MOD_writelistend
                0x00407150                __io_list_MOD_writelistbegin
 .text          0x004071e0      0x5b0 obj/mensamod.o
                0x004071e0                __mensamod_MOD_msgtext
                0x00407200                __mensamod_MOD_fimd_msg_pos
                0x00407210                __mensamod_MOD_mensas
                0x004073e0                __mensamod_MOD_mensa
                0x00407770                __mensamod_MOD_logmsg
 .text          0x00407790      0x9a0 obj/zcomm.o
                0x00407790                __zcomm_MOD_zonsubzon
                0x00407830                __zcomm_MOD_leez1e
 .text          0x00408130     0x28f0 obj/getoptm.o
                0x00408130                __getoptm_MOD_explainstdoptions
                0x00408370                __getoptm_MOD_stdusage
                0x00408680                __getoptm_MOD_prognam
                0x00408860                __getoptm_MOD_parseopts
                0x00408a20                __getoptm_MOD_getopts
                0x00409b20                __getoptm_MOD_optarg
                0x00409cd0                __getoptm_MOD_optargfrange
                0x00409e20                __getoptm_MOD_optargirange
                0x00409f70                __getoptm_MOD_optargrange
                0x0040a0c0                __getoptm_MOD_doptarg
                0x0040a200                __getoptm_MOD_ioptarg
                0x0040a350                __getoptm_MOD_dostdopts
                0x0040a920                __getoptm_MOD_optv
                0x0040a940                __getoptm_MOD_optc
                0x0040a950                __getoptm_MOD_paramv
                0x0040a980                __getoptm_MOD_paramc
                0x0040a990                __getoptm_MOD_argv
                0x0040a9b0                __getoptm_MOD_argc
                0x0040a9c0                __getoptm_MOD_hasopt
                0x0040aa10                __getoptm_MOD_hasopts
 .text          0x0040aa20      0xae0 obj/mlogit.o
                0x0040aa20                __mlogit_MOD_actual_logit
                0x0040b450                __mlogit_MOD_logit
 .text          0x0040b500      0x380 obj/mpowit.o
                0x0040b500                __mpowit_MOD_powit
 .text          0x0040b880      0x120 obj/distribm.o
                0x0040b880                __distribm_MOD_distriberror
 .text          0x0040b9a0     0x7310 obj/lcomm.o
                0x0040b9a0                __lcomm_MOD_calculatenewstocks
                0x0040bb10                __lcomm_MOD_readsubst
                0x0040c140                __lcomm_MOD_leel1e
                0x0040e1e0                __lcomm_MOD_probint
                0x0040e920                __lcomm_MOD_distrib
                0x0040f360                __lcomm_MOD_locin
                0x0040f720                __lcomm_MOD_consumo
                0x0040fc50                __lcomm_MOD_demanda
                0x0040fe80                __lcomm_MOD_restpro
                0x00410c30                __lcomm_MOD_rdlpar
                0x00411630                __lcomm_MOD_leel1s
                0x00411d60                __lcomm_MOD_wrlpar
                0x00412640                __lcomm_MOD_gral1s
 .text          0x00412cb0     0x2fd0 obj/control.o
                0x00412cb0                __control_MOD_skippolinfo
                0x00412e70                __control_MOD_readpolinfo
                0x00413020                __control_MOD_writepolinfo
                0x00413260                __control_MOD_newpolfile
                0x004136b0                __control_MOD_newpol
                0x00413b90                __control_MOD_initpol
                0x00414830                __control_MOD_findpol
                0x004148c0                __control_MOD_checkpol
                0x004149a0                __control_MOD_polfilename
                0x00414be0                __control_MOD_getpoldata
                0x00414ca0                __control_MOD_prevpol
                0x00414f30                __control_MOD_findpolfile
                0x00415710                __control_MOD_openpolfile
                0x00415760                __control_MOD_polfileexists
 .text          0x00415c80     0x2220 obj/gener.o
                0x00415c80                __gener_MOD_fmtval
                0x00415d50                __gener_MOD_integertostring
                0x00415e10                __gener_MOD_lxor
                0x00415e30                __gener_MOD_hourstostring
                0x00415f60                __gener_MOD_isinfd
                0x00415f90                __gener_MOD_isinf
                0x00415fc0                __gener_MOD_ifindnum
                0x00416000                __gener_MOD_getnextfilesection
                0x00416290                __gener_MOD_checknextfilesection
                0x004164b0                __gener_MOD_checkstatus
                0x004164e0                __gener_MOD_upper
                0x00416510                __gener_MOD_sali
                0x00416a70                __gener_MOD_intnum
                0x00416ab0                __gener_MOD_tiejec
                0x00416c30                __gener_MOD_getcurrentdate
                0x00416cd0                __gener_MOD_getcurrenttime
                0x00416d50                __gener_MOD_checkiu
                0x00416f80                __gener_MOD_check
                0x00416fc0                __gener_MOD_creaarch
                0x004170e0                __gener_MOD_abre
                0x004172f0                __gener_MOD_ident
                0x00417960                __gener_MOD_init
                0x00417e70                __gener_MOD_setcurrentdirectory
 .text          0x00417ea0       0x10 obj/param.o
                0x00417ea0                __param_MOD_param_init
 .text          0x00417eb0        0x0 obj/lparc.o
 .text          0x00417eb0       0xf0 obj/optionsm.o
                0x00417eb0                __optionsm_MOD_dirsep
 .text          0x00417fa0      0x6d0 obj/debugm.o
                0x00418010                __debugm_MOD_setdebuglevel
                0x00418020                __debugm_MOD_info
                0x00418060                __debugm_MOD_verbose
                0x004180a0                __debugm_MOD_debug
                0x004180e0                __debugm_MOD_fail
                0x004181e0                __debugm_MOD_assertchareq
                0x00418430                __debugm_MOD_assertinteq
                0x00418630                __debugm_MOD_assert
 .text          0x00418670        0x0 /usr/lib/gcc/i686-pc-cygwin/4.9.2/libgfortran.a(compile_options.o)
 .text          0x00418670        0x0 /usr/lib/gcc/i686-pc-cygwin/4.9.2/libgfortran.a(environ.o)
 .text          0x00418670        0x0 /usr/lib/gcc/i686-pc-cygwin/4.9.2/libgfortran.a(error.o)
 .text          0x00418670        0x0 /usr/lib/gcc/i686-pc-cygwin/4.9.2/libgfortran.a(main.o)
 .text          0x00418670        0x0 /usr/lib/gcc/i686-pc-cygwin/4.9.2/libgfortran.a(memory.o)
 .text          0x00418670        0x0 /usr/lib/gcc/i686-pc-cygwin/4.9.2/libgfortran.a(stop.o)
 .text          0x00418670        0x0 /usr/lib/gcc/i686-pc-cygwin/4.9.2/libgfortran.a(string.o)
 .text          0x00418670        0x0 /usr/lib/gcc/i686-pc-cygwin/4.9.2/libgfortran.a(close.o)
 .text          0x00418670        0x0 /usr/lib/gcc/i686-pc-cygwin/4.9.2/libgfortran.a(file_pos.o)
 .text          0x00418670        0x0 /usr/lib/gcc/i686-pc-cygwin/4.9.2/libgfortran.a(inquire.o)
 .text          0x00418670        0x0 /usr/lib/gcc/i686-pc-cygwin/4.9.2/libgfortran.a(lock.o)
 .text          0x00418670        0x0 /usr/lib/gcc/i686-pc-cygwin/4.9.2/libgfortran.a(open.o)
 .text          0x00418670        0x0 /usr/lib/gcc/i686-pc-cygwin/4.9.2/libgfortran.a(transfer.o)
 .text          0x00418670        0x0 /usr/lib/gcc/i686-pc-cygwin/4.9.2/libgfortran.a(unit.o)
 .text          0x00418670        0x0 /usr/lib/gcc/i686-pc-cygwin/4.9.2/libgfortran.a(unix.o)
 .text          0x00418670        0x0 /usr/lib/gcc/i686-pc-cygwin/4.9.2/libgfortran.a(write.o)
 .text          0x00418670        0x0 /usr/lib/gcc/i686-pc-cygwin/4.9.2/libgfortran.a(fbuf.o)
 .text          0x00418670        0x0 /usr/lib/gcc/i686-pc-cygwin/4.9.2/libgfortran.a(args.o)
 .text          0x00418670        0x0 /usr/lib/gcc/i686-pc-cygwin/4.9.2/libgfortran.a(chdir.o)
 .text          0x00418670        0x0 /usr/lib/gcc/i686-pc-cygwin/4.9.2/libgfortran.a(date_and_time.o)
 .text          0x00418670        0x0 /usr/lib/gcc/i686-pc-cygwin/4.9.2/libgfortran.a(string_intrinsics.o)
 .text          0x00418670        0x0 /usr/lib/gcc/i686-pc-cygwin/4.9.2/libgfortran.a(random.o)
 .text          0x00418670        0x0 /usr/lib/gcc/i686-pc-cygwin/4.9.2/libgfortran.a(backtrace.o)
 .text          0x00418670        0x0 /usr/lib/gcc/i686-pc-cygwin/4.9.2/libgfortran.a(fpu.o)
 .text          0x00418670        0x0 /usr/lib/gcc/i686-pc-cygwin/4.9.2/libgfortran.a(format.o)
 .text          0x00418670        0x0 /usr/lib/gcc/i686-pc-cygwin/4.9.2/libgfortran.a(list_read.o)
 .text          0x00418670        0x0 /usr/lib/gcc/i686-pc-cygwin/4.9.2/libgfortran.a(read.o)
 .text          0x00418670        0x0 /usr/lib/gcc/i686-pc-cygwin/4.9.2/libgfortran.a(size_from_kind.o)
 .text          0x00418670       0x2c /usr/lib/gcc/i686-pc-cygwin/4.9.2/libgcc.a(_chkstk_ms.o)
                0x00418670                __chkstk_ms
 *fill*         0x0041869c        0x4 
 .text          0x004186a0      0x1a0 /usr/lib/gcc/i686-pc-cygwin/4.9.2/libgcc.a(_divdi3.o)
                0x004186a0                __divdi3
 .text          0x00418840      0x110 /usr/lib/gcc/i686-pc-cygwin/4.9.2/libgcc.a(_udivdi3.o)
                0x00418840                __udivdi3
 .text          0x00418950      0x160 /usr/lib/gcc/i686-pc-cygwin/4.9.2/libgcc.a(_umoddi3.o)
                0x00418950                __umoddi3
 .text          0x00418ab0     0x2260 /usr/lib/gcc/i686-pc-cygwin/4.9.2/libgcc.a(addtf3.o)
                0x00418ab0                __addtf3
 .text          0x0041ad10     0x12a0 /usr/lib/gcc/i686-pc-cygwin/4.9.2/libgcc.a(divtf3.o)
                0x0041ad10                __divtf3
 .text          0x0041bfb0      0x220 /usr/lib/gcc/i686-pc-cygwin/4.9.2/libgcc.a(eqtf2.o)
                0x0041bfb0                __netf2
                0x0041bfb0                __eqtf2
 .text          0x0041c1d0      0x1f0 /usr/lib/gcc/i686-pc-cygwin/4.9.2/libgcc.a(getf2.o)
                0x0041c1d0                __gttf2
                0x0041c1d0                __getf2
 .text          0x0041c3c0      0x1d0 /usr/lib/gcc/i686-pc-cygwin/4.9.2/libgcc.a(letf2.o)
                0x0041c3c0                __letf2
                0x0041c3c0                __lttf2
 .text          0x0041c590     0x1170 /usr/lib/gcc/i686-pc-cygwin/4.9.2/libgcc.a(multf3.o)
                0x0041c590                __multf3
 .text          0x0041d700     0x21e0 /usr/lib/gcc/i686-pc-cygwin/4.9.2/libgcc.a(subtf3.o)
                0x0041d700                __subtf3
 .text          0x0041f8e0      0x170 /usr/lib/gcc/i686-pc-cygwin/4.9.2/libgcc.a(floatunditf.o)
                0x0041f8e0                __floatunditf
 .text          0x0041fa50       0x80 /usr/lib/gcc/i686-pc-cygwin/4.9.2/libgcc.a(sfp-exceptions.o)
                0x0041fa50                __sfp_handle_exceptions
 .text          0x0041fad0     0x2480 /usr/lib/gcc/i686-pc-cygwin/4.9.2/libgcc_eh.a(unwind-dw2.o)
                0x00421900                _Unwind_GetGR
                0x00421950                _Unwind_GetCFA
                0x00421960                _Unwind_SetGR
                0x004219b0                _Unwind_GetIP
                0x004219c0                _Unwind_GetIPInfo
                0x004219e0                _Unwind_SetIP
                0x004219f0                _Unwind_GetLanguageSpecificData
                0x00421a00                _Unwind_GetRegionStart
                0x00421a10                _Unwind_FindEnclosingFunction
                0x00421a50                _Unwind_GetDataRelBase
                0x00421a60                _Unwind_GetTextRelBase
                0x00421a70                __frame_state_for
                0x00421b60                _Unwind_RaiseException
                0x00421cc0                _Unwind_ForcedUnwind
                0x00421d60                _Unwind_Resume
                0x00421e00                _Unwind_Resume_or_Rethrow
                0x00421eb0                _Unwind_DeleteException
                0x00421ed0                _Unwind_Backtrace
 .text          0x00421f50     0x1400 /usr/lib/gcc/i686-pc-cygwin/4.9.2/libgcc_eh.a(unwind-dw2-fde.o)
                0x00422eb0                __register_frame_info_bases
                0x00422f20                __register_frame_info
                0x00422fa0                __register_frame
                0x00423020                __register_frame_info_table_bases
                0x00423080                __register_frame_info_table
                0x004230b0                __register_frame_table
                0x004230f0                __deregister_frame_info_bases
                0x004231d0                __deregister_frame_info
                0x004231e0                __deregister_frame
                0x00423210                _Unwind_Find_FDE
 .text          0x00423350       0x60 /usr/lib/gcc/i686-pc-cygwin/4.9.2/libquadmath.a(isnanq.o)
                0x00423350                isnanq
 .text          0x004233b0       0x20 /usr/lib/gcc/i686-pc-cygwin/4.9.2/libquadmath.a(signbitq.o)
                0x004233b0                signbitq
 .text          0x004233d0       0x30 /usr/lib/gcc/i686-pc-cygwin/4.9.2/libquadmath.a(finiteq.o)
                0x004233d0                finiteq
 .text          0x00423400        0x8 /usr/lib/gcc/i686-pc-cygwin/4.9.2/../../../libm.a(t-d000936.o)
                0x00423400                exp
 .text          0x00423408        0x8 /usr/lib/gcc/i686-pc-cygwin/4.9.2/../../../libm.a(t-d001018.o)
                0x00423408                fmod
 .text          0x00423410        0x8 /usr/lib/gcc/i686-pc-cygwin/4.9.2/../../../libm.a(t-d001294.o)
                0x00423410                log
 .text          0x00423418        0x8 /usr/lib/gcc/i686-pc-cygwin/4.9.2/../../../libm.a(t-d001448.o)
                0x00423418                pow
 .text          0x00423420        0x0 /usr/lib/gcc/i686-pc-cygwin/4.9.2/../../../libcygwin.a(d000025.o)
 .text          0x00423420        0x8 /usr/lib/gcc/i686-pc-cygwin/4.9.2/../../../libcygwin.a(t-d000019.o)
                0x00423420                __assert_func
 .text          0x00423428        0x8 /usr/lib/gcc/i686-pc-cygwin/4.9.2/../../../libcygwin.a(t-d000026.o)
                0x00423428                __cxa_atexit
 .text          0x00423430        0x8 /usr/lib/gcc/i686-pc-cygwin/4.9.2/../../../libcygwin.a(t-d000040.o)
                0x00423430                __errno
 .text          0x00423438        0x8 /usr/lib/gcc/i686-pc-cygwin/4.9.2/../../../libcygwin.a(t-d000070.o)
                0x00423438                __getreent
 .text          0x00423440        0x8 /usr/lib/gcc/i686-pc-cygwin/4.9.2/../../../libcygwin.a(t-d000077.o)
                0x00423440                __main
 .text          0x00423448        0x8 /usr/lib/gcc/i686-pc-cygwin/4.9.2/../../../libcygwin.a(t-d000224.o)
                0x00423448                _exit
 .text          0x00423450        0x8 /usr/lib/gcc/i686-pc-cygwin/4.9.2/../../../libcygwin.a(t-d000682.o)
                0x00423450                abort
 .text          0x00423458        0x8 /usr/lib/gcc/i686-pc-cygwin/4.9.2/../../../libcygwin.a(t-d000686.o)
                0x00423458                access
 .text          0x00423460        0x8 /usr/lib/gcc/i686-pc-cygwin/4.9.2/../../../libcygwin.a(t-d000737.o)
                0x00423460                atoi
 .text          0x00423468        0x8 /usr/lib/gcc/i686-pc-cygwin/4.9.2/../../../libcygwin.a(t-d000755.o)
                0x00423468                calloc
 .text          0x00423470        0x8 /usr/lib/gcc/i686-pc-cygwin/4.9.2/../../../libcygwin.a(t-d000783.o)
                0x00423470                chdir
 .text          0x00423478        0x8 /usr/lib/gcc/i686-pc-cygwin/4.9.2/../../../libcygwin.a(t-d000801.o)
                0x00423478                close
 .text          0x00423480        0x8 /usr/lib/gcc/i686-pc-cygwin/4.9.2/../../../libcygwin.a(t-d000893.o)
                0x00423480                dup
 .text          0x00423488        0x8 /usr/lib/gcc/i686-pc-cygwin/4.9.2/../../../libcygwin.a(t-d000894.o)
                0x00423488                dup2
 .text          0x00423490        0x8 /usr/lib/gcc/i686-pc-cygwin/4.9.2/../../../libcygwin.a(t-d000932.o)
                0x00423490                execve
 .text          0x00423498        0x8 /usr/lib/gcc/i686-pc-cygwin/4.9.2/../../../libcygwin.a(t-d000935.o)
                0x00423498                exit
 .text          0x004234a0        0x8 /usr/lib/gcc/i686-pc-cygwin/4.9.2/../../../libcygwin.a(t-d000986.o)
                0x004234a0                fflush
 .text          0x004234a8        0x8 /usr/lib/gcc/i686-pc-cygwin/4.9.2/../../../libcygwin.a(t-d001023.o)
                0x004234a8                fork
 .text          0x004234b0        0x8 /usr/lib/gcc/i686-pc-cygwin/4.9.2/../../../libcygwin.a(t-d001038.o)
                0x004234b0                free
 .text          0x004234b8        0x8 /usr/lib/gcc/i686-pc-cygwin/4.9.2/../../../libcygwin.a(t-d001051.o)
                0x004234b8                fstat
 .text          0x004234c0        0x8 /usr/lib/gcc/i686-pc-cygwin/4.9.2/../../../libcygwin.a(t-d001060.o)
                0x004234c0                ftruncate
 .text          0x004234c8        0x8 /usr/lib/gcc/i686-pc-cygwin/4.9.2/../../../libcygwin.a(t-d001099.o)
                0x004234c8                getcwd
 .text          0x004234d0        0x8 /usr/lib/gcc/i686-pc-cygwin/4.9.2/../../../libcygwin.a(t-d001103.o)
                0x004234d0                getegid
 .text          0x004234d8        0x8 /usr/lib/gcc/i686-pc-cygwin/4.9.2/../../../libcygwin.a(t-d001104.o)
                0x004234d8                getenv
 .text          0x004234e0        0x8 /usr/lib/gcc/i686-pc-cygwin/4.9.2/../../../libcygwin.a(t-d001105.o)
                0x004234e0                geteuid
 .text          0x004234e8        0x8 /usr/lib/gcc/i686-pc-cygwin/4.9.2/../../../libcygwin.a(t-d001106.o)
                0x004234e8                getgid
 .text          0x004234f0        0x8 /usr/lib/gcc/i686-pc-cygwin/4.9.2/../../../libcygwin.a(t-d001161.o)
                0x004234f0                gettimeofday
 .text          0x004234f8        0x8 /usr/lib/gcc/i686-pc-cygwin/4.9.2/../../../libcygwin.a(t-d001162.o)
                0x004234f8                getuid
 .text          0x00423500        0x8 /usr/lib/gcc/i686-pc-cygwin/4.9.2/../../../libcygwin.a(t-d001181.o)
                0x00423500                gmtime_r
 .text          0x00423508        0x8 /usr/lib/gcc/i686-pc-cygwin/4.9.2/../../../libcygwin.a(t-d001227.o)
                0x00423508                isatty
 .text          0x00423510        0x8 /usr/lib/gcc/i686-pc-cygwin/4.9.2/../../../libcygwin.a(t-d001292.o)
                0x00423510                localtime_r
 .text          0x00423518        0x8 /usr/lib/gcc/i686-pc-cygwin/4.9.2/../../../libcygwin.a(t-d001317.o)
                0x00423518                lseek
 .text          0x00423520        0x8 /usr/lib/gcc/i686-pc-cygwin/4.9.2/../../../libcygwin.a(t-d001323.o)
                0x00423520                malloc
 .text          0x00423528        0x8 /usr/lib/gcc/i686-pc-cygwin/4.9.2/../../../libcygwin.a(t-d001340.o)
                0x00423528                memcmp
 .text          0x00423530        0x8 /usr/lib/gcc/i686-pc-cygwin/4.9.2/../../../libcygwin.a(t-d001341.o)
                0x00423530                memcpy
 .text          0x00423538        0x8 /usr/lib/gcc/i686-pc-cygwin/4.9.2/../../../libcygwin.a(t-d001343.o)
                0x00423538                memmove
 .text          0x00423540        0x8 /usr/lib/gcc/i686-pc-cygwin/4.9.2/../../../libcygwin.a(t-d001346.o)
                0x00423540                memset
 .text          0x00423548        0x8 /usr/lib/gcc/i686-pc-cygwin/4.9.2/../../../libcygwin.a(t-d001354.o)
                0x00423548                mkostemp
 .text          0x00423550        0x8 /usr/lib/gcc/i686-pc-cygwin/4.9.2/../../../libcygwin.a(t-d001398.o)
                0x00423550                open
 .text          0x00423558        0x8 /usr/lib/gcc/i686-pc-cygwin/4.9.2/../../../libcygwin.a(t-d001414.o)
                0x00423558                pipe
 .text          0x00423560        0x8 /usr/lib/gcc/i686-pc-cygwin/4.9.2/../../../libcygwin.a(t-d001509.o)
                0x00423560                pthread_mutex_destroy
 .text          0x00423568        0x8 /usr/lib/gcc/i686-pc-cygwin/4.9.2/../../../libcygwin.a(t-d001512.o)
                0x00423568                pthread_mutex_lock
 .text          0x00423570        0x8 /usr/lib/gcc/i686-pc-cygwin/4.9.2/../../../libcygwin.a(t-d001514.o)
                0x00423570                pthread_mutex_trylock
 .text          0x00423578        0x8 /usr/lib/gcc/i686-pc-cygwin/4.9.2/../../../libcygwin.a(t-d001515.o)
                0x00423578                pthread_mutex_unlock
 .text          0x00423580        0x8 /usr/lib/gcc/i686-pc-cygwin/4.9.2/../../../libcygwin.a(t-d001526.o)
                0x00423580                pthread_once
 .text          0x00423588        0x8 /usr/lib/gcc/i686-pc-cygwin/4.9.2/../../../libcygwin.a(t-d001574.o)
                0x00423588                raise
 .text          0x00423590        0x8 /usr/lib/gcc/i686-pc-cygwin/4.9.2/../../../libcygwin.a(t-d001581.o)
                0x00423590                read
 .text          0x00423598        0x8 /usr/lib/gcc/i686-pc-cygwin/4.9.2/../../../libcygwin.a(t-d001584.o)
                0x00423598                readlink
 .text          0x004235a0        0x8 /usr/lib/gcc/i686-pc-cygwin/4.9.2/../../../libcygwin.a(t-d001587.o)
                0x004235a0                realloc
 .text          0x004235a8        0x8 /usr/lib/gcc/i686-pc-cygwin/4.9.2/../../../libcygwin.a(t-d001737.o)
                0x004235a8                signal
 .text          0x004235b0        0x8 /usr/lib/gcc/i686-pc-cygwin/4.9.2/../../../libcygwin.a(t-d001757.o)
                0x004235b0                snprintf
 .text          0x004235b8        0x8 /usr/lib/gcc/i686-pc-cygwin/4.9.2/../../../libcygwin.a(t-d001777.o)
                0x004235b8                stat
 .text          0x004235c0        0x8 /usr/lib/gcc/i686-pc-cygwin/4.9.2/../../../libcygwin.a(t-d001786.o)
                0x004235c0                strchr
 .text          0x004235c8        0x8 /usr/lib/gcc/i686-pc-cygwin/4.9.2/../../../libcygwin.a(t-d001788.o)
                0x004235c8                strcmp
 .text          0x004235d0        0x8 /usr/lib/gcc/i686-pc-cygwin/4.9.2/../../../libcygwin.a(t-d001792.o)
                0x004235d0                strdup
 .text          0x004235d8        0x8 /usr/lib/gcc/i686-pc-cygwin/4.9.2/../../../libcygwin.a(t-d001794.o)
                0x004235d8                strerror_r
 .text          0x004235e0        0x8 /usr/lib/gcc/i686-pc-cygwin/4.9.2/../../../libcygwin.a(t-d001799.o)
                0x004235e0                strlen
 .text          0x004235e8        0x8 /usr/lib/gcc/i686-pc-cygwin/4.9.2/../../../libcygwin.a(t-d001801.o)
                0x004235e8                strncasecmp
 .text          0x004235f0        0x8 /usr/lib/gcc/i686-pc-cygwin/4.9.2/../../../libcygwin.a(t-d001803.o)
                0x004235f0                strncmp
 .text          0x004235f8        0x8 /usr/lib/gcc/i686-pc-cygwin/4.9.2/../../../libcygwin.a(t-d001814.o)
                0x004235f8                strtod
 .text          0x00423600        0x8 /usr/lib/gcc/i686-pc-cygwin/4.9.2/../../../libcygwin.a(t-d001816.o)
                0x00423600                strtof
 .text          0x00423608        0x8 /usr/lib/gcc/i686-pc-cygwin/4.9.2/../../../libcygwin.a(t-d001819.o)
                0x00423608                strtok_r
 .text          0x00423610        0x8 /usr/lib/gcc/i686-pc-cygwin/4.9.2/../../../libcygwin.a(t-d001821.o)
                0x00423610                strtold
 .text          0x00423618        0x8 /usr/lib/gcc/i686-pc-cygwin/4.9.2/../../../libcygwin.a(t-d001863.o)
                0x00423618                time
 .text          0x00423620        0x8 /usr/lib/gcc/i686-pc-cygwin/4.9.2/../../../libcygwin.a(t-d001875.o)
                0x00423620                tolower
 .text          0x00423628        0x8 /usr/lib/gcc/i686-pc-cygwin/4.9.2/../../../libcygwin.a(t-d001876.o)
                0x00423628                toupper
 .text          0x00423630        0x8 /usr/lib/gcc/i686-pc-cygwin/4.9.2/../../../libcygwin.a(t-d001885.o)
                0x00423630                ttyname_r
 .text          0x00423638        0x8 /usr/lib/gcc/i686-pc-cygwin/4.9.2/../../../libcygwin.a(t-d001890.o)
                0x00423638                umask
 .text          0x00423640        0x8 /usr/lib/gcc/i686-pc-cygwin/4.9.2/../../../libcygwin.a(t-d001895.o)
                0x00423640                unlink
 .text          0x00423648        0x8 /usr/lib/gcc/i686-pc-cygwin/4.9.2/../../../libcygwin.a(t-d001925.o)
                0x00423648                vsnprintf
 .text          0x00423650        0x8 /usr/lib/gcc/i686-pc-cygwin/4.9.2/../../../libcygwin.a(t-d001936.o)
                0x00423650                wait
 .text          0x00423658        0x8 /usr/lib/gcc/i686-pc-cygwin/4.9.2/../../../libcygwin.a(t-d001994.o)
                0x00423658                write
 .text          0x00423660       0x30 /usr/lib/gcc/i686-pc-cygwin/4.9.2/../../../libcygwin.a(cygwin_crt0.o)
                0x00423660                cygwin_crt0
 .text          0x00423690       0x10 /usr/lib/gcc/i686-pc-cygwin/4.9.2/../../../libcygwin.a(premain0.o)
                0x00423690                cygwin_premain0
 .text          0x004236a0       0x10 /usr/lib/gcc/i686-pc-cygwin/4.9.2/../../../libcygwin.a(premain1.o)
                0x004236a0                cygwin_premain1
 .text          0x004236b0       0x10 /usr/lib/gcc/i686-pc-cygwin/4.9.2/../../../libcygwin.a(premain2.o)
                0x004236b0                cygwin_premain2
 .text          0x004236c0       0x10 /usr/lib/gcc/i686-pc-cygwin/4.9.2/../../../libcygwin.a(premain3.o)
                0x004236c0                cygwin_premain3
 .text          0x004236d0      0x320 /usr/lib/gcc/i686-pc-cygwin/4.9.2/../../../libcygwin.a(_cygwin_crt0_common.o)
                0x004236d0                _cygwin_crt0_common@8
 .text          0x004239f0      0x120 /usr/lib/gcc/i686-pc-cygwin/4.9.2/../../../libcygwin.a(dll_entry.o)
                0x00423a20                _cygwin_dll_entry@12
                0x00423b00                _cygwin_noncygwin_dll_entry@12
 .text          0x00423b10       0x10 /usr/lib/gcc/i686-pc-cygwin/4.9.2/../../../libcygwin.a(dll_main.o)
                0x00423b10                DllMain@12
 .text          0x00423b20       0x10 /usr/lib/gcc/i686-pc-cygwin/4.9.2/../../../libcygwin.a(pseudo-reloc-dummy.o)
                0x00423b20                _pei386_runtime_relocator
 .text          0x00423b30        0x0 /usr/lib/gcc/i686-pc-cygwin/4.9.2/../../../libcygwin.a(d000385.o)
 .text          0x00423b30        0x8 /usr/lib/gcc/i686-pc-cygwin/4.9.2/../../../libcygwin.a(t-d000858.o)
                0x00423b30                cygwin_detach_dll
 .text          0x00423b38        0x8 /usr/lib/gcc/i686-pc-cygwin/4.9.2/../../../libcygwin.a(t-d000860.o)
                0x00423b38                cygwin_internal
 .text          0x00423b40        0x8 /usr/lib/gcc/i686-pc-cygwin/4.9.2/../../../libcygwin.a(t-d001421.o)
                0x00423b40                posix_memalign
 *fill*         0x00423b48        0x8 
 .text          0x00423b50       0x40 /usr/lib/gcc/i686-pc-cygwin/4.9.2/../../../libcygwin.a(cygwin_attach_dll.o)
                0x00423b50                cygwin_attach_dll
 .text          0x00423b90        0x8 /usr/lib/gcc/i686-pc-cygwin/4.9.2/../../../libcygwin.a(t-d000881.o)
                0x00423b90                dll_dllcrt0
 .text          0x00423b98        0x8 /usr/lib/w32api/libkernel32.a(dwfms00533.o)
                0x00423b98                GetModuleHandleA@4
 .text          0x00423ba0        0x0 /usr/lib/w32api/libkernel32.a(dwfmh.o)
 .text          0x00423ba0        0x0 /usr/lib/w32api/libkernel32.a(dwfmt.o)
 .text          0x00423ba0        0x0 /usr/lib/gcc/i686-pc-cygwin/4.9.2/libgcc.a(_ctors.o)
 .text          0x00423ba0        0x0 /usr/lib/gcc/i686-pc-cygwin/4.9.2/crtend.o
 *(SORT(.text$*))
 .text$__gfortran_adjustl
                0x00423ba0       0x80 /usr/lib/gcc/i686-pc-cygwin/4.9.2/libgfortran.a(string_intrinsics.o)
                0x00423ba0                _gfortran_adjustl
 .text$__gfortran_adjustl_char4
                0x00423c20       0x80 /usr/lib/gcc/i686-pc-cygwin/4.9.2/libgfortran.a(string_intrinsics.o)
                0x00423c20                _gfortran_adjustl_char4
 .text$__gfortran_adjustr
                0x00423ca0       0x80 /usr/lib/gcc/i686-pc-cygwin/4.9.2/libgfortran.a(string_intrinsics.o)
                0x00423ca0                _gfortran_adjustr
 .text$__gfortran_adjustr_char4
                0x00423d20       0x90 /usr/lib/gcc/i686-pc-cygwin/4.9.2/libgfortran.a(string_intrinsics.o)
                0x00423d20                _gfortran_adjustr_char4
 .text$__gfortran_arandom_r10
                0x00423db0      0x1c0 /usr/lib/gcc/i686-pc-cygwin/4.9.2/libgfortran.a(random.o)
                0x00423db0                _gfortran_arandom_r10
 .text$__gfortran_arandom_r16
                0x00423f70      0x360 /usr/lib/gcc/i686-pc-cygwin/4.9.2/libgfortran.a(random.o)
                0x00423f70                _gfortran_arandom_r16
 .text$__gfortran_arandom_r4
                0x004242d0      0x180 /usr/lib/gcc/i686-pc-cygwin/4.9.2/libgfortran.a(random.o)
                0x004242d0                _gfortran_arandom_r4
 .text$__gfortran_arandom_r8
                0x00424450      0x1e0 /usr/lib/gcc/i686-pc-cygwin/4.9.2/libgfortran.a(random.o)
                0x00424450                _gfortran_arandom_r8
 .text$__gfortran_backtrace
                0x00424630      0x1e0 /usr/lib/gcc/i686-pc-cygwin/4.9.2/libgfortran.a(backtrace.o)
                0x00424630                _gfortran_backtrace
 .text$__gfortran_chdir_i4
                0x00424810       0x30 /usr/lib/gcc/i686-pc-cygwin/4.9.2/libgfortran.a(chdir.o)
                0x00424810                _gfortran_chdir_i4
 .text$__gfortran_chdir_i4_sub
                0x00424840       0x90 /usr/lib/gcc/i686-pc-cygwin/4.9.2/libgfortran.a(chdir.o)
                0x00424840                _gfortran_chdir_i4_sub
 .text$__gfortran_chdir_i8
                0x004248d0       0x30 /usr/lib/gcc/i686-pc-cygwin/4.9.2/libgfortran.a(chdir.o)
                0x004248d0                _gfortran_chdir_i8
 .text$__gfortran_chdir_i8_sub
                0x00424900       0xa0 /usr/lib/gcc/i686-pc-cygwin/4.9.2/libgfortran.a(chdir.o)
                0x00424900                _gfortran_chdir_i8_sub
 .text$__gfortran_compare_string
                0x004249a0       0xb0 /usr/lib/gcc/i686-pc-cygwin/4.9.2/libgfortran.a(string_intrinsics.o)
                0x004249a0                _gfortran_compare_string
 .text$__gfortran_compare_string_char4
                0x00424a50       0xd0 /usr/lib/gcc/i686-pc-cygwin/4.9.2/libgfortran.a(string_intrinsics.o)
                0x00424a50                _gfortran_compare_string_char4
 .text$__gfortran_concat_string
                0x00424b20       0xb0 /usr/lib/gcc/i686-pc-cygwin/4.9.2/libgfortran.a(string_intrinsics.o)
                0x00424b20                _gfortran_concat_string
 .text$__gfortran_concat_string_char4
                0x00424bd0       0xe0 /usr/lib/gcc/i686-pc-cygwin/4.9.2/libgfortran.a(string_intrinsics.o)
                0x00424bd0                _gfortran_concat_string_char4
 .text$__gfortran_date_and_time
                0x00424cb0      0x3c0 /usr/lib/gcc/i686-pc-cygwin/4.9.2/libgfortran.a(date_and_time.o)
                0x00424cb0                _gfortran_date_and_time
 .text$__gfortran_error_stop_numeric
                0x00425070       0x30 /usr/lib/gcc/i686-pc-cygwin/4.9.2/libgfortran.a(stop.o)
                0x00425070                _gfortran_error_stop_numeric
 .text$__gfortran_error_stop_string
                0x004250a0       0x60 /usr/lib/gcc/i686-pc-cygwin/4.9.2/libgfortran.a(stop.o)
                0x004250a0                _gfortran_error_stop_string
 .text$__gfortran_generate_error
                0x00425100      0x1a0 /usr/lib/gcc/i686-pc-cygwin/4.9.2/libgfortran.a(error.o)
                0x00425100                _gfortran_generate_error
 .text$__gfortran_get_command_argument_i4
                0x004252a0      0x120 /usr/lib/gcc/i686-pc-cygwin/4.9.2/libgfortran.a(args.o)
                0x004252a0                _gfortran_get_command_argument_i4
 .text$__gfortran_get_command_argument_i8
                0x004253c0       0x70 /usr/lib/gcc/i686-pc-cygwin/4.9.2/libgfortran.a(args.o)
                0x004253c0                _gfortran_get_command_argument_i8
 .text$__gfortran_get_command_i4
                0x00425430      0x170 /usr/lib/gcc/i686-pc-cygwin/4.9.2/libgfortran.a(args.o)
                0x00425430                _gfortran_get_command_i4
 .text$__gfortran_get_command_i8
                0x004255a0       0x60 /usr/lib/gcc/i686-pc-cygwin/4.9.2/libgfortran.a(args.o)
                0x004255a0                _gfortran_get_command_i8
 .text$__gfortran_getarg_i4
                0x00425600       0x80 /usr/lib/gcc/i686-pc-cygwin/4.9.2/libgfortran.a(args.o)
                0x00425600                _gfortran_getarg_i4
 .text$__gfortran_getarg_i8
                0x00425680       0x30 /usr/lib/gcc/i686-pc-cygwin/4.9.2/libgfortran.a(args.o)
                0x00425680                _gfortran_getarg_i8
 .text$__gfortran_gmtime_i4
                0x004256b0       0x90 /usr/lib/gcc/i686-pc-cygwin/4.9.2/libgfortran.a(date_and_time.o)
                0x004256b0                _gfortran_gmtime_i4
 .text$__gfortran_gmtime_i8
                0x00425740       0x90 /usr/lib/gcc/i686-pc-cygwin/4.9.2/libgfortran.a(date_and_time.o)
                0x00425740                _gfortran_gmtime_i8
 .text$__gfortran_iargc
                0x004257d0       0x30 /usr/lib/gcc/i686-pc-cygwin/4.9.2/libgfortran.a(args.o)
                0x004257d0                _gfortran_iargc
 .text$__gfortran_idate_i4
                0x00425800       0x80 /usr/lib/gcc/i686-pc-cygwin/4.9.2/libgfortran.a(date_and_time.o)
                0x00425800                _gfortran_idate_i4
 .text$__gfortran_idate_i8
                0x00425880       0x80 /usr/lib/gcc/i686-pc-cygwin/4.9.2/libgfortran.a(date_and_time.o)
                0x00425880                _gfortran_idate_i8
 .text$__gfortran_itime_i4
                0x00425900       0x80 /usr/lib/gcc/i686-pc-cygwin/4.9.2/libgfortran.a(date_and_time.o)
                0x00425900                _gfortran_itime_i4
 .text$__gfortran_itime_i8
                0x00425980       0x80 /usr/lib/gcc/i686-pc-cygwin/4.9.2/libgfortran.a(date_and_time.o)
                0x00425980                _gfortran_itime_i8
 .text$__gfortran_ltime_i4
                0x00425a00       0x90 /usr/lib/gcc/i686-pc-cygwin/4.9.2/libgfortran.a(date_and_time.o)
                0x00425a00                _gfortran_ltime_i4
 .text$__gfortran_ltime_i8
                0x00425a90       0x90 /usr/lib/gcc/i686-pc-cygwin/4.9.2/libgfortran.a(date_and_time.o)
                0x00425a90                _gfortran_ltime_i8
 .text$__gfortran_os_error
                0x00425b20       0x90 /usr/lib/gcc/i686-pc-cygwin/4.9.2/libgfortran.a(error.o)
                0x00425b20                _gfortran_os_error
 .text$__gfortran_random_r10
                0x00425bb0       0x70 /usr/lib/gcc/i686-pc-cygwin/4.9.2/libgfortran.a(random.o)
                0x00425bb0                _gfortran_random_r10
 .text$__gfortran_random_r16
                0x00425c20      0x1e0 /usr/lib/gcc/i686-pc-cygwin/4.9.2/libgfortran.a(random.o)
                0x00425c20                _gfortran_random_r16
 .text$__gfortran_random_r4
                0x00425e00       0x50 /usr/lib/gcc/i686-pc-cygwin/4.9.2/libgfortran.a(random.o)
                0x00425e00                _gfortran_random_r4
 .text$__gfortran_random_r8
                0x00425e50       0x80 /usr/lib/gcc/i686-pc-cygwin/4.9.2/libgfortran.a(random.o)
                0x00425e50                _gfortran_random_r8
 .text$__gfortran_random_seed_i4
                0x00425ed0      0x200 /usr/lib/gcc/i686-pc-cygwin/4.9.2/libgfortran.a(random.o)
                0x00425ed0                _gfortran_random_seed_i4
 .text$__gfortran_random_seed_i8
                0x004260d0      0x190 /usr/lib/gcc/i686-pc-cygwin/4.9.2/libgfortran.a(random.o)
                0x004260d0                _gfortran_random_seed_i8
 .text$__gfortran_runtime_error
                0x00426260       0x60 /usr/lib/gcc/i686-pc-cygwin/4.9.2/libgfortran.a(error.o)
                0x00426260                _gfortran_runtime_error
 .text$__gfortran_runtime_error_at
                0x004262c0       0x70 /usr/lib/gcc/i686-pc-cygwin/4.9.2/libgfortran.a(error.o)
                0x004262c0                _gfortran_runtime_error_at
 .text$__gfortran_runtime_warning_at
                0x00426330       0x40 /usr/lib/gcc/i686-pc-cygwin/4.9.2/libgfortran.a(error.o)
                0x00426330                _gfortran_runtime_warning_at
 .text$__gfortran_secnds
                0x00426370      0x100 /usr/lib/gcc/i686-pc-cygwin/4.9.2/libgfortran.a(date_and_time.o)
                0x00426370                _gfortran_secnds
 .text$__gfortran_set_args
                0x00426470       0x20 /usr/lib/gcc/i686-pc-cygwin/4.9.2/libgfortran.a(main.o)
                0x00426470                _gfortran_set_args
 .text$__gfortran_set_convert
                0x00426490       0x10 /usr/lib/gcc/i686-pc-cygwin/4.9.2/libgfortran.a(compile_options.o)
                0x00426490                _gfortran_set_convert
 .text$__gfortran_set_fpe
                0x004264a0       0x10 /usr/lib/gcc/i686-pc-cygwin/4.9.2/libgfortran.a(fpu.o)
                0x004264a0                _gfortran_set_fpe
 .text$__gfortran_set_max_subrecord_length
                0x004264b0       0x30 /usr/lib/gcc/i686-pc-cygwin/4.9.2/libgfortran.a(compile_options.o)
                0x004264b0                _gfortran_set_max_subrecord_length
 .text$__gfortran_set_options
                0x004264e0      0x160 /usr/lib/gcc/i686-pc-cygwin/4.9.2/libgfortran.a(compile_options.o)
                0x004264e0                _gfortran_set_options
 .text$__gfortran_set_record_marker
                0x00426640       0x40 /usr/lib/gcc/i686-pc-cygwin/4.9.2/libgfortran.a(compile_options.o)
                0x00426640                _gfortran_set_record_marker
 .text$__gfortran_st_backspace
                0x00426680      0x520 /usr/lib/gcc/i686-pc-cygwin/4.9.2/libgfortran.a(file_pos.o)
                0x00426680                _gfortran_st_backspace
 .text$__gfortran_st_close
                0x00426ba0       0xc0 /usr/lib/gcc/i686-pc-cygwin/4.9.2/libgfortran.a(close.o)
                0x00426ba0                _gfortran_st_close
 .text$__gfortran_st_endfile
                0x00426c60      0x290 /usr/lib/gcc/i686-pc-cygwin/4.9.2/libgfortran.a(file_pos.o)
                0x00426c60                _gfortran_st_endfile
 .text$__gfortran_st_flush
                0x00426ef0       0x70 /usr/lib/gcc/i686-pc-cygwin/4.9.2/libgfortran.a(file_pos.o)
                0x00426ef0                _gfortran_st_flush
 .text$__gfortran_st_inquire
                0x00426f60      0x560 /usr/lib/gcc/i686-pc-cygwin/4.9.2/libgfortran.a(inquire.o)
                0x00426f60                _gfortran_st_inquire
 .text$__gfortran_st_iolength
                0x004274c0       0x60 /usr/lib/gcc/i686-pc-cygwin/4.9.2/libgfortran.a(transfer.o)
                0x004274c0                _gfortran_st_iolength
 .text$__gfortran_st_iolength_done
                0x00427520       0x10 /usr/lib/gcc/i686-pc-cygwin/4.9.2/libgfortran.a(transfer.o)
                0x00427520                _gfortran_st_iolength_done
 .text$__gfortran_st_open
                0x00427530      0x670 /usr/lib/gcc/i686-pc-cygwin/4.9.2/libgfortran.a(open.o)
                0x00427530                _gfortran_st_open
 .text$__gfortran_st_read
                0x00427ba0       0x20 /usr/lib/gcc/i686-pc-cygwin/4.9.2/libgfortran.a(transfer.o)
                0x00427ba0                _gfortran_st_read
 .text$__gfortran_st_read_done
                0x00427bc0       0x50 /usr/lib/gcc/i686-pc-cygwin/4.9.2/libgfortran.a(transfer.o)
                0x00427bc0                _gfortran_st_read_done
 .text$__gfortran_st_rewind
                0x00427c10      0x120 /usr/lib/gcc/i686-pc-cygwin/4.9.2/libgfortran.a(file_pos.o)
                0x00427c10                _gfortran_st_rewind
 .text$__gfortran_st_set_nml_var
                0x00427d30      0x120 /usr/lib/gcc/i686-pc-cygwin/4.9.2/libgfortran.a(transfer.o)
                0x00427d30                _gfortran_st_set_nml_var
 .text$__gfortran_st_set_nml_var_dim
                0x00427e50       0x40 /usr/lib/gcc/i686-pc-cygwin/4.9.2/libgfortran.a(transfer.o)
                0x00427e50                _gfortran_st_set_nml_var_dim
 .text$__gfortran_st_wait
                0x00427e90       0x10 /usr/lib/gcc/i686-pc-cygwin/4.9.2/libgfortran.a(transfer.o)
                0x00427e90                _gfortran_st_wait
 .text$__gfortran_st_write
                0x00427ea0       0x20 /usr/lib/gcc/i686-pc-cygwin/4.9.2/libgfortran.a(transfer.o)
                0x00427ea0                _gfortran_st_write
 .text$__gfortran_st_write_done
                0x00427ec0       0xb0 /usr/lib/gcc/i686-pc-cygwin/4.9.2/libgfortran.a(transfer.o)
                0x00427ec0                _gfortran_st_write_done
 .text$__gfortran_stop_numeric
                0x00427f70       0x40 /usr/lib/gcc/i686-pc-cygwin/4.9.2/libgfortran.a(stop.o)
                0x00427f70                _gfortran_stop_numeric
 .text$__gfortran_stop_numeric_f08
                0x00427fb0       0x30 /usr/lib/gcc/i686-pc-cygwin/4.9.2/libgfortran.a(stop.o)
                0x00427fb0                _gfortran_stop_numeric_f08
 .text$__gfortran_stop_string
                0x00427fe0       0x60 /usr/lib/gcc/i686-pc-cygwin/4.9.2/libgfortran.a(stop.o)
                0x00427fe0                _gfortran_stop_string
 .text$__gfortran_store_exe_path
                0x00428040      0x130 /usr/lib/gcc/i686-pc-cygwin/4.9.2/libgfortran.a(main.o)
                0x00428040                _gfortran_store_exe_path
 .text$__gfortran_string_index
                0x00428170       0xc0 /usr/lib/gcc/i686-pc-cygwin/4.9.2/libgfortran.a(string_intrinsics.o)
                0x00428170                _gfortran_string_index
 .text$__gfortran_string_index_char4
                0x00428230       0xd0 /usr/lib/gcc/i686-pc-cygwin/4.9.2/libgfortran.a(string_intrinsics.o)
                0x00428230                _gfortran_string_index_char4
 .text$__gfortran_string_len_trim
                0x00428300       0xa0 /usr/lib/gcc/i686-pc-cygwin/4.9.2/libgfortran.a(string_intrinsics.o)
                0x00428300                _gfortran_string_len_trim
 .text$__gfortran_string_len_trim_char4
                0x004283a0       0x30 /usr/lib/gcc/i686-pc-cygwin/4.9.2/libgfortran.a(string_intrinsics.o)
                0x004283a0                _gfortran_string_len_trim_char4
 .text$__gfortran_string_minmax
                0x004283d0      0x160 /usr/lib/gcc/i686-pc-cygwin/4.9.2/libgfortran.a(string_intrinsics.o)
                0x004283d0                _gfortran_string_minmax
 .text$__gfortran_string_minmax_char4
                0x00428530      0x160 /usr/lib/gcc/i686-pc-cygwin/4.9.2/libgfortran.a(string_intrinsics.o)
                0x00428530                _gfortran_string_minmax_char4
 .text$__gfortran_string_scan
                0x00428690       0xb0 /usr/lib/gcc/i686-pc-cygwin/4.9.2/libgfortran.a(string_intrinsics.o)
                0x00428690                _gfortran_string_scan
 .text$__gfortran_string_scan_char4
                0x00428740       0xa0 /usr/lib/gcc/i686-pc-cygwin/4.9.2/libgfortran.a(string_intrinsics.o)
                0x00428740                _gfortran_string_scan_char4
 .text$__gfortran_string_trim
                0x004287e0       0x60 /usr/lib/gcc/i686-pc-cygwin/4.9.2/libgfortran.a(string_intrinsics.o)
                0x004287e0                _gfortran_string_trim
 .text$__gfortran_string_trim_char4
                0x00428840       0x80 /usr/lib/gcc/i686-pc-cygwin/4.9.2/libgfortran.a(string_intrinsics.o)
                0x00428840                _gfortran_string_trim_char4
 .text$__gfortran_string_verify
                0x004288c0       0x90 /usr/lib/gcc/i686-pc-cygwin/4.9.2/libgfortran.a(string_intrinsics.o)
                0x004288c0                _gfortran_string_verify
 .text$__gfortran_string_verify_char4
                0x00428950       0x90 /usr/lib/gcc/i686-pc-cygwin/4.9.2/libgfortran.a(string_intrinsics.o)
                0x00428950                _gfortran_string_verify_char4
 .text$__gfortran_transfer_array
                0x004289e0      0x1f0 /usr/lib/gcc/i686-pc-cygwin/4.9.2/libgfortran.a(transfer.o)
                0x004289e0                _gfortran_transfer_array
 .text$__gfortran_transfer_array_write
                0x00428bd0       0x10 /usr/lib/gcc/i686-pc-cygwin/4.9.2/libgfortran.a(transfer.o)
                0x00428bd0                _gfortran_transfer_array_write
 .text$__gfortran_transfer_character
                0x00428be0       0x30 /usr/lib/gcc/i686-pc-cygwin/4.9.2/libgfortran.a(transfer.o)
                0x00428be0                _gfortran_transfer_character
 .text$__gfortran_transfer_character.part.12
                0x00428c10       0x40 /usr/lib/gcc/i686-pc-cygwin/4.9.2/libgfortran.a(transfer.o)
 .text$__gfortran_transfer_character_wide
                0x00428c50       0x30 /usr/lib/gcc/i686-pc-cygwin/4.9.2/libgfortran.a(transfer.o)
                0x00428c50                _gfortran_transfer_character_wide
 .text$__gfortran_transfer_character_wide.part.13
                0x00428c80       0x40 /usr/lib/gcc/i686-pc-cygwin/4.9.2/libgfortran.a(transfer.o)
 .text$__gfortran_transfer_character_wide_write
                0x00428cc0       0x30 /usr/lib/gcc/i686-pc-cygwin/4.9.2/libgfortran.a(transfer.o)
                0x00428cc0                _gfortran_transfer_character_wide_write
 .text$__gfortran_transfer_character_write
                0x00428cf0       0x20 /usr/lib/gcc/i686-pc-cygwin/4.9.2/libgfortran.a(transfer.o)
                0x00428cf0                _gfortran_transfer_character_write
 .text$__gfortran_transfer_complex
                0x00428d10       0x20 /usr/lib/gcc/i686-pc-cygwin/4.9.2/libgfortran.a(transfer.o)
                0x00428d10                _gfortran_transfer_complex
 .text$__gfortran_transfer_complex.part.14
                0x00428d30       0x40 /usr/lib/gcc/i686-pc-cygwin/4.9.2/libgfortran.a(transfer.o)
 .text$__gfortran_transfer_complex_write
                0x00428d70       0x20 /usr/lib/gcc/i686-pc-cygwin/4.9.2/libgfortran.a(transfer.o)
                0x00428d70                _gfortran_transfer_complex_write
 .text$__gfortran_transfer_integer
                0x00428d90       0x40 /usr/lib/gcc/i686-pc-cygwin/4.9.2/libgfortran.a(transfer.o)
                0x00428d90                _gfortran_transfer_integer
 .text$__gfortran_transfer_integer_write
                0x00428dd0       0x40 /usr/lib/gcc/i686-pc-cygwin/4.9.2/libgfortran.a(transfer.o)
                0x00428dd0                _gfortran_transfer_integer_write
 .text$__gfortran_transfer_logical
                0x00428e10       0x40 /usr/lib/gcc/i686-pc-cygwin/4.9.2/libgfortran.a(transfer.o)
                0x00428e10                _gfortran_transfer_logical
 .text$__gfortran_transfer_logical_write
                0x00428e50       0x40 /usr/lib/gcc/i686-pc-cygwin/4.9.2/libgfortran.a(transfer.o)
                0x00428e50                _gfortran_transfer_logical_write
 .text$__gfortran_transfer_real
                0x00428e90       0x20 /usr/lib/gcc/i686-pc-cygwin/4.9.2/libgfortran.a(transfer.o)
                0x00428e90                _gfortran_transfer_real
 .text$__gfortran_transfer_real.part.10
                0x00428eb0       0x40 /usr/lib/gcc/i686-pc-cygwin/4.9.2/libgfortran.a(transfer.o)
 .text$__gfortran_transfer_real_write
                0x00428ef0       0x20 /usr/lib/gcc/i686-pc-cygwin/4.9.2/libgfortran.a(transfer.o)
                0x00428ef0                _gfortran_transfer_real_write
 .text$__gfortrani_backtrace_handler
                0x00428f10       0xa0 /usr/lib/gcc/i686-pc-cygwin/4.9.2/libgfortran.a(compile_options.o)
                0x00428f10                _gfortrani_backtrace_handler
 .text$__gfortrani_cf_strcpy
                0x00428fb0       0x70 /usr/lib/gcc/i686-pc-cygwin/4.9.2/libgfortran.a(string.o)
                0x00428fb0                _gfortrani_cf_strcpy
 .text$__gfortrani_close_unit
                0x00429020       0x10 /usr/lib/gcc/i686-pc-cygwin/4.9.2/libgfortran.a(unit.o)
                0x00429020                _gfortrani_close_unit
 .text$__gfortrani_close_units
                0x00429030       0x50 /usr/lib/gcc/i686-pc-cygwin/4.9.2/libgfortran.a(unit.o)
                0x00429030                _gfortrani_close_units
 .text$__gfortrani_compare_file_filename
                0x00429080       0x90 /usr/lib/gcc/i686-pc-cygwin/4.9.2/libgfortran.a(unix.o)
                0x00429080                _gfortrani_compare_file_filename
 .text$__gfortrani_convert_infnan
                0x00429110      0x1a0 /usr/lib/gcc/i686-pc-cygwin/4.9.2/libgfortran.a(read.o)
                0x00429110                _gfortrani_convert_infnan
 .text$__gfortrani_convert_real
                0x004292b0      0x160 /usr/lib/gcc/i686-pc-cygwin/4.9.2/libgfortran.a(read.o)
                0x004292b0                _gfortrani_convert_real
 .text$__gfortrani_delete_file
                0x00429410       0x80 /usr/lib/gcc/i686-pc-cygwin/4.9.2/libgfortran.a(unix.o)
                0x00429410                _gfortrani_delete_file
 .text$__gfortrani_error_stream
                0x00429490       0x10 /usr/lib/gcc/i686-pc-cygwin/4.9.2/libgfortran.a(unix.o)
                0x00429490                _gfortrani_error_stream
 .text$__gfortrani_estr_write
                0x004294a0       0x30 /usr/lib/gcc/i686-pc-cygwin/4.9.2/libgfortran.a(error.o)
                0x004294a0                _gfortrani_estr_write
 .text$__gfortrani_fbuf_alloc
                0x004294d0       0x80 /usr/lib/gcc/i686-pc-cygwin/4.9.2/libgfortran.a(fbuf.o)
                0x004294d0                _gfortrani_fbuf_alloc
 .text$__gfortrani_fbuf_destroy
                0x00429550       0x40 /usr/lib/gcc/i686-pc-cygwin/4.9.2/libgfortran.a(fbuf.o)
                0x00429550                _gfortrani_fbuf_destroy
 .text$__gfortrani_fbuf_flush
                0x00429590       0xb0 /usr/lib/gcc/i686-pc-cygwin/4.9.2/libgfortran.a(fbuf.o)
                0x00429590                _gfortrani_fbuf_flush
 .text$__gfortrani_fbuf_getc_refill
                0x00429640       0x60 /usr/lib/gcc/i686-pc-cygwin/4.9.2/libgfortran.a(fbuf.o)
                0x00429640                _gfortrani_fbuf_getc_refill
 .text$__gfortrani_fbuf_init
                0x004296a0       0x60 /usr/lib/gcc/i686-pc-cygwin/4.9.2/libgfortran.a(fbuf.o)
                0x004296a0                _gfortrani_fbuf_init
 .text$__gfortrani_fbuf_read
                0x00429700       0x90 /usr/lib/gcc/i686-pc-cygwin/4.9.2/libgfortran.a(fbuf.o)
                0x00429700                _gfortrani_fbuf_read
 .text$__gfortrani_fbuf_reset
                0x00429790       0x70 /usr/lib/gcc/i686-pc-cygwin/4.9.2/libgfortran.a(fbuf.o)
                0x00429790                _gfortrani_fbuf_reset
 .text$__gfortrani_fbuf_seek
                0x00429800       0x50 /usr/lib/gcc/i686-pc-cygwin/4.9.2/libgfortran.a(fbuf.o)
                0x00429800                _gfortrani_fbuf_seek
 .text$__gfortrani_file_exists
                0x00429850       0x70 /usr/lib/gcc/i686-pc-cygwin/4.9.2/libgfortran.a(unix.o)
                0x00429850                _gfortrani_file_exists
 .text$__gfortrani_file_size
                0x004298c0       0x70 /usr/lib/gcc/i686-pc-cygwin/4.9.2/libgfortran.a(unix.o)
                0x004298c0                _gfortrani_file_size
 .text$__gfortrani_filename_from_unit
                0x00429930       0x70 /usr/lib/gcc/i686-pc-cygwin/4.9.2/libgfortran.a(unit.o)
                0x00429930                _gfortrani_filename_from_unit
 .text$__gfortrani_find_addr2line
                0x004299a0       0xf0 /usr/lib/gcc/i686-pc-cygwin/4.9.2/libgfortran.a(main.o)
                0x004299a0                _gfortrani_find_addr2line
 .text$__gfortrani_find_file
                0x00429a90      0x140 /usr/lib/gcc/i686-pc-cygwin/4.9.2/libgfortran.a(unix.o)
                0x00429a90                _gfortrani_find_file
 .text$__gfortrani_find_option
                0x00429bd0       0xa0 /usr/lib/gcc/i686-pc-cygwin/4.9.2/libgfortran.a(string.o)
                0x00429bd0                _gfortrani_find_option
 .text$__gfortrani_find_or_create_unit
                0x00429c70       0x10 /usr/lib/gcc/i686-pc-cygwin/4.9.2/libgfortran.a(unit.o)
                0x00429c70                _gfortrani_find_or_create_unit
 .text$__gfortrani_find_unit
                0x00429c80       0x10 /usr/lib/gcc/i686-pc-cygwin/4.9.2/libgfortran.a(unit.o)
                0x00429c80                _gfortrani_find_unit
 .text$__gfortrani_finish_last_advance_record
                0x00429c90       0x70 /usr/lib/gcc/i686-pc-cygwin/4.9.2/libgfortran.a(unit.o)
                0x00429c90                _gfortrani_finish_last_advance_record
 .text$__gfortrani_finish_list_read
                0x00429d00      0x100 /usr/lib/gcc/i686-pc-cygwin/4.9.2/libgfortran.a(list_read.o)
                0x00429d00                _gfortrani_finish_list_read
 .text$__gfortrani_flush_all_units
                0x00429e00       0xd0 /usr/lib/gcc/i686-pc-cygwin/4.9.2/libgfortran.a(unix.o)
                0x00429e00                _gfortrani_flush_all_units
 .text$__gfortrani_flush_if_preconnected
                0x00429ed0       0x70 /usr/lib/gcc/i686-pc-cygwin/4.9.2/libgfortran.a(unix.o)
                0x00429ed0                _gfortrani_flush_if_preconnected
 .text$__gfortrani_flush_if_unbuffered
                0x00429f40       0x20 /usr/lib/gcc/i686-pc-cygwin/4.9.2/libgfortran.a(unix.o)
                0x00429f40                _gfortrani_flush_if_unbuffered
 .text$__gfortrani_format_error
                0x00429f60      0x180 /usr/lib/gcc/i686-pc-cygwin/4.9.2/libgfortran.a(format.o)
                0x00429f60                _gfortrani_format_error
 .text$__gfortrani_free_format_data
                0x0042a0e0       0x40 /usr/lib/gcc/i686-pc-cygwin/4.9.2/libgfortran.a(format.o)
                0x0042a0e0                _gfortrani_free_format_data
 .text$__gfortrani_free_format_hash_table
                0x0042a120       0x50 /usr/lib/gcc/i686-pc-cygwin/4.9.2/libgfortran.a(format.o)
                0x0042a120                _gfortrani_free_format_hash_table
 .text$__gfortrani_free_internal_unit
                0x0042a170       0x80 /usr/lib/gcc/i686-pc-cygwin/4.9.2/libgfortran.a(unit.o)
                0x0042a170                _gfortrani_free_internal_unit
 .text$__gfortrani_free_ionml
                0x0042a1f0       0x80 /usr/lib/gcc/i686-pc-cygwin/4.9.2/libgfortran.a(lock.o)
                0x0042a1f0                _gfortrani_free_ionml
 .text$__gfortrani_fstrcpy
                0x0042a270       0x70 /usr/lib/gcc/i686-pc-cygwin/4.9.2/libgfortran.a(string.o)
                0x0042a270                _gfortrani_fstrcpy
 .text$__gfortrani_fstrlen
                0x0042a2e0       0x30 /usr/lib/gcc/i686-pc-cygwin/4.9.2/libgfortran.a(string.o)
                0x0042a2e0                _gfortrani_fstrlen
 .text$__gfortrani_full_exe_path
                0x0042a310       0x10 /usr/lib/gcc/i686-pc-cygwin/4.9.2/libgfortran.a(main.o)
                0x0042a310                _gfortrani_full_exe_path
 .text$__gfortrani_generate_warning
                0x0042a320       0x50 /usr/lib/gcc/i686-pc-cygwin/4.9.2/libgfortran.a(error.o)
                0x0042a320                _gfortrani_generate_warning
 .text$__gfortrani_get_args
                0x0042a370       0x20 /usr/lib/gcc/i686-pc-cygwin/4.9.2/libgfortran.a(main.o)
                0x0042a370                _gfortrani_get_args
 .text$__gfortrani_get_fpu_except_flags
                0x0042a390       0x40 /usr/lib/gcc/i686-pc-cygwin/4.9.2/libgfortran.a(fpu.o)
                0x0042a390                _gfortrani_get_fpu_except_flags
 .text$__gfortrani_get_fpu_rounding_mode
                0x0042a3d0       0x20 /usr/lib/gcc/i686-pc-cygwin/4.9.2/libgfortran.a(fpu.o)
                0x0042a3d0                _gfortrani_get_fpu_rounding_mode
 .text$__gfortrani_get_internal_unit
                0x0042a3f0      0x370 /usr/lib/gcc/i686-pc-cygwin/4.9.2/libgfortran.a(unit.o)
                0x0042a3f0                _gfortrani_get_internal_unit
 .text$__gfortrani_get_unformatted_convert
                0x0042a760       0x50 /usr/lib/gcc/i686-pc-cygwin/4.9.2/libgfortran.a(environ.o)
                0x0042a760                _gfortrani_get_unformatted_convert
 .text$__gfortrani_get_unique_unit_number
                0x0042a7b0       0x40 /usr/lib/gcc/i686-pc-cygwin/4.9.2/libgfortran.a(unit.o)
                0x0042a7b0                _gfortrani_get_unique_unit_number
 .text$__gfortrani_get_unit
                0x0042a7f0       0x40 /usr/lib/gcc/i686-pc-cygwin/4.9.2/libgfortran.a(unit.o)
                0x0042a7f0                _gfortrani_get_unit
 .text$__gfortrani_gf_strerror
                0x0042a830       0x10 /usr/lib/gcc/i686-pc-cygwin/4.9.2/libgfortran.a(error.o)
                0x0042a830                _gfortrani_gf_strerror
 .text$__gfortrani_gfc_xtoa
                0x0042a840       0x80 /usr/lib/gcc/i686-pc-cygwin/4.9.2/libgfortran.a(error.o)
                0x0042a840                _gfortrani_gfc_xtoa
 .text$__gfortrani_hit_eof
                0x0042a8c0       0xd0 /usr/lib/gcc/i686-pc-cygwin/4.9.2/libgfortran.a(transfer.o)
                0x0042a8c0                _gfortrani_hit_eof
 .text$__gfortrani_init_compile_options
                0x0042a990       0x40 /usr/lib/gcc/i686-pc-cygwin/4.9.2/libgfortran.a(compile_options.o)
                0x0042a990                _gfortrani_init_compile_options
 .text$__gfortrani_init_loop_spec
                0x0042a9d0       0xe0 /usr/lib/gcc/i686-pc-cygwin/4.9.2/libgfortran.a(transfer.o)
                0x0042a9d0                _gfortrani_init_loop_spec
 .text$__gfortrani_init_units
                0x0042aab0      0x2f0 /usr/lib/gcc/i686-pc-cygwin/4.9.2/libgfortran.a(unit.o)
                0x0042aab0                _gfortrani_init_units
 .text$__gfortrani_init_variables
                0x0042ada0       0x30 /usr/lib/gcc/i686-pc-cygwin/4.9.2/libgfortran.a(environ.o)
                0x0042ada0                _gfortrani_init_variables
 .text$__gfortrani_input_stream
                0x0042add0       0x10 /usr/lib/gcc/i686-pc-cygwin/4.9.2/libgfortran.a(unix.o)
                0x0042add0                _gfortrani_input_stream
 .text$__gfortrani_inquire_direct
                0x0042ade0       0xa0 /usr/lib/gcc/i686-pc-cygwin/4.9.2/libgfortran.a(unix.o)
                0x0042ade0                _gfortrani_inquire_direct
 .text$__gfortrani_inquire_formatted
                0x0042ae80       0xb0 /usr/lib/gcc/i686-pc-cygwin/4.9.2/libgfortran.a(unix.o)
                0x0042ae80                _gfortrani_inquire_formatted
 .text$__gfortrani_inquire_read
                0x0042af30       0x20 /usr/lib/gcc/i686-pc-cygwin/4.9.2/libgfortran.a(unix.o)
                0x0042af30                _gfortrani_inquire_read
 .text$__gfortrani_inquire_readwrite
                0x0042af50       0x20 /usr/lib/gcc/i686-pc-cygwin/4.9.2/libgfortran.a(unix.o)
                0x0042af50                _gfortrani_inquire_readwrite
 .text$__gfortrani_inquire_sequential
                0x0042af70       0xa0 /usr/lib/gcc/i686-pc-cygwin/4.9.2/libgfortran.a(unix.o)
                0x0042af70                _gfortrani_inquire_sequential
 .text$__gfortrani_inquire_unformatted
                0x0042b010       0x10 /usr/lib/gcc/i686-pc-cygwin/4.9.2/libgfortran.a(unix.o)
                0x0042b010                _gfortrani_inquire_unformatted
 .text$__gfortrani_inquire_write
                0x0042b020       0x20 /usr/lib/gcc/i686-pc-cygwin/4.9.2/libgfortran.a(unix.o)
                0x0042b020                _gfortrani_inquire_write
 .text$__gfortrani_internal_error
                0x0042b040       0x60 /usr/lib/gcc/i686-pc-cygwin/4.9.2/libgfortran.a(error.o)
                0x0042b040                _gfortrani_internal_error
 .text$__gfortrani_library_start
                0x0042b0a0       0x20 /usr/lib/gcc/i686-pc-cygwin/4.9.2/libgfortran.a(lock.o)
                0x0042b0a0                _gfortrani_library_start
 .text$__gfortrani_list_formatted_read
                0x0042b0c0      0x5d0 /usr/lib/gcc/i686-pc-cygwin/4.9.2/libgfortran.a(list_read.o)
                0x0042b0c0                _gfortrani_list_formatted_read
 .text$__gfortrani_list_formatted_write
                0x0042b690      0x220 /usr/lib/gcc/i686-pc-cygwin/4.9.2/libgfortran.a(write.o)
                0x0042b690                _gfortrani_list_formatted_write
 .text$__gfortrani_mem_alloc_r
                0x0042b8b0       0xb0 /usr/lib/gcc/i686-pc-cygwin/4.9.2/libgfortran.a(unix.o)
                0x0042b8b0                _gfortrani_mem_alloc_r
 .text$__gfortrani_mem_alloc_r4
                0x0042b960       0xb0 /usr/lib/gcc/i686-pc-cygwin/4.9.2/libgfortran.a(unix.o)
                0x0042b960                _gfortrani_mem_alloc_r4
 .text$__gfortrani_mem_alloc_w
                0x0042ba10       0x60 /usr/lib/gcc/i686-pc-cygwin/4.9.2/libgfortran.a(unix.o)
                0x0042ba10                _gfortrani_mem_alloc_w
 .text$__gfortrani_mem_alloc_w4
                0x0042ba70       0x60 /usr/lib/gcc/i686-pc-cygwin/4.9.2/libgfortran.a(unix.o)
                0x0042ba70                _gfortrani_mem_alloc_w4
 .text$__gfortrani_memcmp_char4
                0x0042bad0       0x50 /usr/lib/gcc/i686-pc-cygwin/4.9.2/libgfortran.a(string_intrinsics.o)
                0x0042bad0                _gfortrani_memcmp_char4
 .text$__gfortrani_namelist_read
                0x0042bb20      0xd00 /usr/lib/gcc/i686-pc-cygwin/4.9.2/libgfortran.a(list_read.o)
                0x0042bb20                _gfortrani_namelist_read
 .text$__gfortrani_namelist_write
                0x0042c820      0x110 /usr/lib/gcc/i686-pc-cygwin/4.9.2/libgfortran.a(write.o)
                0x0042c820                _gfortrani_namelist_write
 .text$__gfortrani_new_unit
                0x0042c930      0x920 /usr/lib/gcc/i686-pc-cygwin/4.9.2/libgfortran.a(open.o)
                0x0042c930                _gfortrani_new_unit
 .text$__gfortrani_next_array_record
                0x0042d250       0xc0 /usr/lib/gcc/i686-pc-cygwin/4.9.2/libgfortran.a(transfer.o)
                0x0042d250                _gfortrani_next_array_record
 .text$__gfortrani_next_format
                0x0042d310       0xe0 /usr/lib/gcc/i686-pc-cygwin/4.9.2/libgfortran.a(format.o)
                0x0042d310                _gfortrani_next_format
 .text$__gfortrani_next_record
                0x0042d3f0      0x880 /usr/lib/gcc/i686-pc-cygwin/4.9.2/libgfortran.a(transfer.o)
                0x0042d3f0                _gfortrani_next_record
 .text$__gfortrani_notification_std
                0x0042dc70       0x40 /usr/lib/gcc/i686-pc-cygwin/4.9.2/libgfortran.a(error.o)
                0x0042dc70                _gfortrani_notification_std
 .text$__gfortrani_notify_std
                0x0042dcb0       0xe0 /usr/lib/gcc/i686-pc-cygwin/4.9.2/libgfortran.a(error.o)
                0x0042dcb0                _gfortrani_notify_std
 .text$__gfortrani_open_external
                0x0042dd90      0x510 /usr/lib/gcc/i686-pc-cygwin/4.9.2/libgfortran.a(unix.o)
                0x0042dd90                _gfortrani_open_external
 .text$__gfortrani_open_internal
                0x0042e2a0       0x50 /usr/lib/gcc/i686-pc-cygwin/4.9.2/libgfortran.a(unix.o)
                0x0042e2a0                _gfortrani_open_internal
 .text$__gfortrani_open_internal4
                0x0042e2f0       0x60 /usr/lib/gcc/i686-pc-cygwin/4.9.2/libgfortran.a(unix.o)
                0x0042e2f0                _gfortrani_open_internal4
 .text$__gfortrani_output_stream
                0x0042e350       0x10 /usr/lib/gcc/i686-pc-cygwin/4.9.2/libgfortran.a(unix.o)
                0x0042e350                _gfortrani_output_stream
 .text$__gfortrani_parse_format
                0x0042e360      0x2b0 /usr/lib/gcc/i686-pc-cygwin/4.9.2/libgfortran.a(format.o)
                0x0042e360                _gfortrani_parse_format
 .text$__gfortrani_read_a
                0x0042e610      0x150 /usr/lib/gcc/i686-pc-cygwin/4.9.2/libgfortran.a(read.o)
                0x0042e610                _gfortrani_read_a
 .text$__gfortrani_read_block_form
                0x0042e760      0x6c0 /usr/lib/gcc/i686-pc-cygwin/4.9.2/libgfortran.a(transfer.o)
                0x0042e760                _gfortrani_read_block_form
 .text$__gfortrani_read_block_form4
                0x0042ee20       0xe0 /usr/lib/gcc/i686-pc-cygwin/4.9.2/libgfortran.a(transfer.o)
                0x0042ee20                _gfortrani_read_block_form4
 .text$__gfortrani_read_decimal
                0x0042ef00      0x2d0 /usr/lib/gcc/i686-pc-cygwin/4.9.2/libgfortran.a(read.o)
                0x0042ef00                _gfortrani_read_decimal
 .text$__gfortrani_read_f
                0x0042f1d0      0x710 /usr/lib/gcc/i686-pc-cygwin/4.9.2/libgfortran.a(read.o)
                0x0042f1d0                _gfortrani_read_f
 .text$__gfortrani_read_l
                0x0042f8e0      0x120 /usr/lib/gcc/i686-pc-cygwin/4.9.2/libgfortran.a(read.o)
                0x0042f8e0                _gfortrani_read_l
 .text$__gfortrani_read_radix
                0x0042fa00      0x320 /usr/lib/gcc/i686-pc-cygwin/4.9.2/libgfortran.a(read.o)
                0x0042fa00                _gfortrani_read_radix
 .text$__gfortrani_read_x
                0x0042fd20      0x1f0 /usr/lib/gcc/i686-pc-cygwin/4.9.2/libgfortran.a(read.o)
                0x0042fd20                _gfortrani_read_x
 .text$__gfortrani_secure_getenv
                0x0042ff10       0x50 /usr/lib/gcc/i686-pc-cygwin/4.9.2/libgfortran.a(environ.o)
                0x0042ff10                _gfortrani_secure_getenv
 .text$__gfortrani_set_fpu
                0x0042ff60       0x60 /usr/lib/gcc/i686-pc-cygwin/4.9.2/libgfortran.a(fpu.o)
                0x0042ff60                _gfortrani_set_fpu
 .text$__gfortrani_set_fpu_rounding_mode
                0x0042ffc0       0x90 /usr/lib/gcc/i686-pc-cygwin/4.9.2/libgfortran.a(fpu.o)
                0x0042ffc0                _gfortrani_set_fpu_rounding_mode
 .text$__gfortrani_set_integer
                0x00430050       0x70 /usr/lib/gcc/i686-pc-cygwin/4.9.2/libgfortran.a(read.o)
                0x00430050                _gfortrani_set_integer
 .text$__gfortrani_show_locus
                0x004300c0       0xb0 /usr/lib/gcc/i686-pc-cygwin/4.9.2/libgfortran.a(error.o)
                0x004300c0                _gfortrani_show_locus
 .text$__gfortrani_show_variables
                0x00430170      0x170 /usr/lib/gcc/i686-pc-cygwin/4.9.2/libgfortran.a(environ.o)
                0x00430170                _gfortrani_show_variables
 .text$__gfortrani_si_max
                0x004302e0       0xa0 /usr/lib/gcc/i686-pc-cygwin/4.9.2/libgfortran.a(read.o)
                0x004302e0                _gfortrani_si_max
 .text$__gfortrani_size_from_complex_kind
                0x00430380       0x40 /usr/lib/gcc/i686-pc-cygwin/4.9.2/libgfortran.a(size_from_kind.o)
                0x00430380                _gfortrani_size_from_complex_kind
 .text$__gfortrani_size_from_real_kind
                0x004303c0       0x40 /usr/lib/gcc/i686-pc-cygwin/4.9.2/libgfortran.a(size_from_kind.o)
                0x004303c0                _gfortrani_size_from_real_kind
 .text$__gfortrani_st_printf
                0x00430400       0x20 /usr/lib/gcc/i686-pc-cygwin/4.9.2/libgfortran.a(error.o)
                0x00430400                _gfortrani_st_printf
 .text$__gfortrani_st_vprintf
                0x00430420       0x50 /usr/lib/gcc/i686-pc-cygwin/4.9.2/libgfortran.a(error.o)
                0x00430420                _gfortrani_st_vprintf
 .text$__gfortrani_stream_isatty
                0x00430470       0x10 /usr/lib/gcc/i686-pc-cygwin/4.9.2/libgfortran.a(unix.o)
                0x00430470                _gfortrani_stream_isatty
 .text$__gfortrani_stream_ttyname
                0x00430480       0x10 /usr/lib/gcc/i686-pc-cygwin/4.9.2/libgfortran.a(unix.o)
                0x00430480                _gfortrani_stream_ttyname
 .text$__gfortrani_stupid_function_name_for_static_linking
                0x00430490       0x10 /usr/lib/gcc/i686-pc-cygwin/4.9.2/libgfortran.a(main.o)
                0x00430490                _gfortrani_stupid_function_name_for_static_linking
 .text$__gfortrani_sys_abort
                0x004304a0       0x50 /usr/lib/gcc/i686-pc-cygwin/4.9.2/libgfortran.a(error.o)
                0x004304a0                _gfortrani_sys_abort
 .text$__gfortrani_translate_error
                0x004304f0      0x180 /usr/lib/gcc/i686-pc-cygwin/4.9.2/libgfortran.a(error.o)
                0x004304f0                _gfortrani_translate_error
 .text$__gfortrani_type_name
                0x00430670       0x80 /usr/lib/gcc/i686-pc-cygwin/4.9.2/libgfortran.a(transfer.o)
                0x00430670                _gfortrani_type_name
 .text$__gfortrani_unget_format
                0x004306f0       0x20 /usr/lib/gcc/i686-pc-cygwin/4.9.2/libgfortran.a(format.o)
                0x004306f0                _gfortrani_unget_format
 .text$__gfortrani_unit_to_fd
                0x00430710       0x40 /usr/lib/gcc/i686-pc-cygwin/4.9.2/libgfortran.a(unix.o)
                0x00430710                _gfortrani_unit_to_fd
 .text$__gfortrani_unit_truncate
                0x00430750       0xa0 /usr/lib/gcc/i686-pc-cygwin/4.9.2/libgfortran.a(unit.o)
                0x00430750                _gfortrani_unit_truncate
 .text$__gfortrani_unlock_unit
                0x004307f0       0x10 /usr/lib/gcc/i686-pc-cygwin/4.9.2/libgfortran.a(unit.o)
                0x004307f0                _gfortrani_unlock_unit
 .text$__gfortrani_unpack_filename
                0x00430800       0x20 /usr/lib/gcc/i686-pc-cygwin/4.9.2/libgfortran.a(unix.o)
                0x00430800                _gfortrani_unpack_filename
 .text$__gfortrani_unpack_filename.part.6
                0x00430820       0x50 /usr/lib/gcc/i686-pc-cygwin/4.9.2/libgfortran.a(unix.o)
 .text$__gfortrani_write_a
                0x00430870      0x120 /usr/lib/gcc/i686-pc-cygwin/4.9.2/libgfortran.a(write.o)
                0x00430870                _gfortrani_write_a
 .text$__gfortrani_write_a_char4
                0x00430990       0x60 /usr/lib/gcc/i686-pc-cygwin/4.9.2/libgfortran.a(write.o)
                0x00430990                _gfortrani_write_a_char4
 .text$__gfortrani_write_b
                0x004309f0      0x1a0 /usr/lib/gcc/i686-pc-cygwin/4.9.2/libgfortran.a(write.o)
                0x004309f0                _gfortrani_write_b
 .text$__gfortrani_write_block
                0x00430b90      0x1f0 /usr/lib/gcc/i686-pc-cygwin/4.9.2/libgfortran.a(transfer.o)
                0x00430b90                _gfortrani_write_block
 .text$__gfortrani_write_d
                0x00430d80       0x30 /usr/lib/gcc/i686-pc-cygwin/4.9.2/libgfortran.a(write.o)
                0x00430d80                _gfortrani_write_d
 .text$__gfortrani_write_e
                0x00430db0       0x30 /usr/lib/gcc/i686-pc-cygwin/4.9.2/libgfortran.a(write.o)
                0x00430db0                _gfortrani_write_e
 .text$__gfortrani_write_en
                0x00430de0       0x30 /usr/lib/gcc/i686-pc-cygwin/4.9.2/libgfortran.a(write.o)
                0x00430de0                _gfortrani_write_en
 .text$__gfortrani_write_es
                0x00430e10       0x30 /usr/lib/gcc/i686-pc-cygwin/4.9.2/libgfortran.a(write.o)
                0x00430e10                _gfortrani_write_es
 .text$__gfortrani_write_f
                0x00430e40       0x30 /usr/lib/gcc/i686-pc-cygwin/4.9.2/libgfortran.a(write.o)
                0x00430e40                _gfortrani_write_f
 .text$__gfortrani_write_i
                0x00430e70      0x380 /usr/lib/gcc/i686-pc-cygwin/4.9.2/libgfortran.a(write.o)
                0x00430e70                _gfortrani_write_i
 .text$__gfortrani_write_l
                0x004311f0       0xd0 /usr/lib/gcc/i686-pc-cygwin/4.9.2/libgfortran.a(write.o)
                0x004311f0                _gfortrani_write_l
 .text$__gfortrani_write_o
                0x004312c0      0x220 /usr/lib/gcc/i686-pc-cygwin/4.9.2/libgfortran.a(write.o)
                0x004312c0                _gfortrani_write_o
 .text$__gfortrani_write_real
                0x004314e0       0x50 /usr/lib/gcc/i686-pc-cygwin/4.9.2/libgfortran.a(write.o)
                0x004314e0                _gfortrani_write_real
 .text$__gfortrani_write_real_g0
                0x00431530       0x70 /usr/lib/gcc/i686-pc-cygwin/4.9.2/libgfortran.a(write.o)
                0x00431530                _gfortrani_write_real_g0
 .text$__gfortrani_write_x
                0x004315a0       0x80 /usr/lib/gcc/i686-pc-cygwin/4.9.2/libgfortran.a(write.o)
                0x004315a0                _gfortrani_write_x
 .text$__gfortrani_write_z
                0x00431620      0x150 /usr/lib/gcc/i686-pc-cygwin/4.9.2/libgfortran.a(write.o)
                0x00431620                _gfortrani_write_z
 .text$__gfortrani_xcalloc
                0x00431770       0x50 /usr/lib/gcc/i686-pc-cygwin/4.9.2/libgfortran.a(memory.o)
                0x00431770                _gfortrani_xcalloc
 .text$__gfortrani_xmalloc
                0x004317c0       0x30 /usr/lib/gcc/i686-pc-cygwin/4.9.2/libgfortran.a(memory.o)
                0x004317c0                _gfortrani_xmalloc
 .text$__gfortrani_xmallocarray
                0x004317f0       0x70 /usr/lib/gcc/i686-pc-cygwin/4.9.2/libgfortran.a(memory.o)
                0x004317f0                _gfortrani_xmallocarray
 .text$bswap_array
                0x00431860      0x200 /usr/lib/gcc/i686-pc-cygwin/4.9.2/libgfortran.a(transfer.o)
 .text$buf_close
                0x00431a60       0x40 /usr/lib/gcc/i686-pc-cygwin/4.9.2/libgfortran.a(unix.o)
 .text$buf_flush
                0x00431aa0       0xb0 /usr/lib/gcc/i686-pc-cygwin/4.9.2/libgfortran.a(unix.o)
 .text$buf_read
                0x00431b50      0x320 /usr/lib/gcc/i686-pc-cygwin/4.9.2/libgfortran.a(unix.o)
 .text$buf_seek
                0x00431e70       0x70 /usr/lib/gcc/i686-pc-cygwin/4.9.2/libgfortran.a(unix.o)
 .text$buf_size
                0x00431ee0       0x10 /usr/lib/gcc/i686-pc-cygwin/4.9.2/libgfortran.a(unix.o)
 .text$buf_tell
                0x00431ef0       0x30 /usr/lib/gcc/i686-pc-cygwin/4.9.2/libgfortran.a(unix.o)
 .text$buf_truncate
                0x00431f20       0x50 /usr/lib/gcc/i686-pc-cygwin/4.9.2/libgfortran.a(unix.o)
 .text$buf_write
                0x00431f70      0x240 /usr/lib/gcc/i686-pc-cygwin/4.9.2/libgfortran.a(unix.o)
 .text$calculate_sign.isra.0
                0x004321b0       0x40 /usr/lib/gcc/i686-pc-cygwin/4.9.2/libgfortran.a(write.o)
 .text$close_unit_1
                0x004321f0      0x150 /usr/lib/gcc/i686-pc-cygwin/4.9.2/libgfortran.a(unit.o)
 .text$convert_integer
                0x00432340      0x310 /usr/lib/gcc/i686-pc-cygwin/4.9.2/libgfortran.a(list_read.o)
 .text$data_transfer_init
                0x00432650      0xd90 /usr/lib/gcc/i686-pc-cygwin/4.9.2/libgfortran.a(transfer.o)
 .text$delete_root
                0x004333e0       0x70 /usr/lib/gcc/i686-pc-cygwin/4.9.2/libgfortran.a(unit.o)
 .text$delete_treap
                0x00433450       0x60 /usr/lib/gcc/i686-pc-cygwin/4.9.2/libgfortran.a(unit.o)
 .text$determine_precision.isra.2
                0x004334b0       0x70 /usr/lib/gcc/i686-pc-cygwin/4.9.2/libgfortran.a(write.o)
 .text$do_parse
                0x00433520      0x2a0 /usr/lib/gcc/i686-pc-cygwin/4.9.2/libgfortran.a(environ.o)
 .text$eat_line
                0x004337c0       0x40 /usr/lib/gcc/i686-pc-cygwin/4.9.2/libgfortran.a(list_read.o)
 .text$eat_separator
                0x00433800      0x110 /usr/lib/gcc/i686-pc-cygwin/4.9.2/libgfortran.a(list_read.o)
 .text$eat_spaces
                0x00433910      0x1d0 /usr/lib/gcc/i686-pc-cygwin/4.9.2/libgfortran.a(list_read.o)
 .text$edit_modes
                0x00433ae0      0x360 /usr/lib/gcc/i686-pc-cygwin/4.9.2/libgfortran.a(open.o)
 .text$extract_int
                0x00433e40       0x70 /usr/lib/gcc/i686-pc-cygwin/4.9.2/libgfortran.a(write.o)
 .text$extract_uint
                0x00433eb0       0x70 /usr/lib/gcc/i686-pc-cygwin/4.9.2/libgfortran.a(write.o)
 .text$fd_gets  0x00433f20       0x90 /usr/lib/gcc/i686-pc-cygwin/4.9.2/libgfortran.a(backtrace.o)
 .text$fd_to_stream
                0x00433fb0      0x120 /usr/lib/gcc/i686-pc-cygwin/4.9.2/libgfortran.a(unix.o)
 .text$finalize_transfer
                0x004340d0      0x230 /usr/lib/gcc/i686-pc-cygwin/4.9.2/libgfortran.a(transfer.o)
 .text$find_file0
                0x00434300       0x60 /usr/lib/gcc/i686-pc-cygwin/4.9.2/libgfortran.a(unix.o)
 .text$finish_separator
                0x00434360       0xc0 /usr/lib/gcc/i686-pc-cygwin/4.9.2/libgfortran.a(list_read.o)
 .text$flush_all_units_1
                0x00434420       0x80 /usr/lib/gcc/i686-pc-cygwin/4.9.2/libgfortran.a(unix.o)
 .text$format_lex.part.3
                0x004344a0      0x400 /usr/lib/gcc/i686-pc-cygwin/4.9.2/libgfortran.a(format.o)
 .text$formatted_transfer
                0x004348a0     0x12e0 /usr/lib/gcc/i686-pc-cygwin/4.9.2/libgfortran.a(transfer.o)
 .text$get_external_unit
                0x00435b80      0x150 /usr/lib/gcc/i686-pc-cygwin/4.9.2/libgfortran.a(unit.o)
 .text$get_fnode
                0x00435cd0       0xb0 /usr/lib/gcc/i686-pc-cygwin/4.9.2/libgfortran.a(format.o)
 .text$gmtime_0
                0x00435d80       0x60 /usr/lib/gcc/i686-pc-cygwin/4.9.2/libgfortran.a(date_and_time.o)
 .text$has_sse  0x00435de0       0x40 /usr/lib/gcc/i686-pc-cygwin/4.9.2/libgfortran.a(fpu.o)
 .text$idate0   0x00435e20       0x50 /usr/lib/gcc/i686-pc-cygwin/4.9.2/libgfortran.a(date_and_time.o)
 .text$init_boolean
                0x00435e70       0x60 /usr/lib/gcc/i686-pc-cygwin/4.9.2/libgfortran.a(environ.o)
 .text$init_integer
                0x00435ed0       0x80 /usr/lib/gcc/i686-pc-cygwin/4.9.2/libgfortran.a(environ.o)
 .text$init_sep
                0x00435f50       0x90 /usr/lib/gcc/i686-pc-cygwin/4.9.2/libgfortran.a(environ.o)
 .text$init_string
                0x00435fe0       0x10 /usr/lib/gcc/i686-pc-cygwin/4.9.2/libgfortran.a(environ.o)
 .text$init_unformatted
                0x00435ff0       0x80 /usr/lib/gcc/i686-pc-cygwin/4.9.2/libgfortran.a(environ.o)
 .text$init_unsigned_integer
                0x00436070       0x70 /usr/lib/gcc/i686-pc-cygwin/4.9.2/libgfortran.a(environ.o)
 .text$inquire_access
                0x004360e0       0x80 /usr/lib/gcc/i686-pc-cygwin/4.9.2/libgfortran.a(unix.o)
 .text$inquire_via_unit
                0x00436160      0xd20 /usr/lib/gcc/i686-pc-cygwin/4.9.2/libgfortran.a(inquire.o)
 .text$insert   0x00436e80       0x80 /usr/lib/gcc/i686-pc-cygwin/4.9.2/libgfortran.a(unit.o)
 .text$insert_unit
                0x00436f00       0x90 /usr/lib/gcc/i686-pc-cygwin/4.9.2/libgfortran.a(unit.o)
 .text$iolength_transfer
                0x00436f90       0x30 /usr/lib/gcc/i686-pc-cygwin/4.9.2/libgfortran.a(transfer.o)
 .text$itime0   0x00436fc0       0x50 /usr/lib/gcc/i686-pc-cygwin/4.9.2/libgfortran.a(date_and_time.o)
 .text$kiss_random_kernel
                0x00437010       0x70 /usr/lib/gcc/i686-pc-cygwin/4.9.2/libgfortran.a(random.o)
 .text$l_push_char
                0x00437080       0x60 /usr/lib/gcc/i686-pc-cygwin/4.9.2/libgfortran.a(list_read.o)
 .text$ltime_0  0x004370e0       0x60 /usr/lib/gcc/i686-pc-cygwin/4.9.2/libgfortran.a(date_and_time.o)
 .text$mark_single
                0x00437140       0xb0 /usr/lib/gcc/i686-pc-cygwin/4.9.2/libgfortran.a(environ.o)
 .text$match_word
                0x004371f0       0x50 /usr/lib/gcc/i686-pc-cygwin/4.9.2/libgfortran.a(environ.o)
 .text$mem_close
                0x00437240       0x20 /usr/lib/gcc/i686-pc-cygwin/4.9.2/libgfortran.a(unix.o)
 .text$mem_flush
                0x00437260       0x10 /usr/lib/gcc/i686-pc-cygwin/4.9.2/libgfortran.a(unix.o)
 .text$mem_read
                0x00437270       0x50 /usr/lib/gcc/i686-pc-cygwin/4.9.2/libgfortran.a(unix.o)
 .text$mem_read4
                0x004372c0       0x50 /usr/lib/gcc/i686-pc-cygwin/4.9.2/libgfortran.a(unix.o)
 .text$mem_seek
                0x00437310       0x90 /usr/lib/gcc/i686-pc-cygwin/4.9.2/libgfortran.a(unix.o)
 .text$mem_tell
                0x004373a0       0x10 /usr/lib/gcc/i686-pc-cygwin/4.9.2/libgfortran.a(unix.o)
 .text$mem_truncate
                0x004373b0       0x10 /usr/lib/gcc/i686-pc-cygwin/4.9.2/libgfortran.a(unix.o)
 .text$mem_write
                0x004373c0       0x80 /usr/lib/gcc/i686-pc-cygwin/4.9.2/libgfortran.a(unix.o)
 .text$mem_write4
                0x00437440       0xa0 /usr/lib/gcc/i686-pc-cygwin/4.9.2/libgfortran.a(unix.o)
 .text$namelist_write_newline
                0x004374e0      0x1a0 /usr/lib/gcc/i686-pc-cygwin/4.9.2/libgfortran.a(write.o)
 .text$next_char
                0x00437680       0x60 /usr/lib/gcc/i686-pc-cygwin/4.9.2/libgfortran.a(format.o)
 .text$next_char
                0x004376e0      0x2d0 /usr/lib/gcc/i686-pc-cygwin/4.9.2/libgfortran.a(list_read.o)
 .text$next_char.isra.0
                0x004379b0       0x80 /usr/lib/gcc/i686-pc-cygwin/4.9.2/libgfortran.a(read.o)
 .text$next_format0
                0x00437a30       0xd0 /usr/lib/gcc/i686-pc-cygwin/4.9.2/libgfortran.a(format.o)
 .text$next_record_w_unf
                0x00437b00      0x150 /usr/lib/gcc/i686-pc-cygwin/4.9.2/libgfortran.a(transfer.o)
 .text$next_token
                0x00437c50       0xe0 /usr/lib/gcc/i686-pc-cygwin/4.9.2/libgfortran.a(environ.o)
 .text$nml_match_name
                0x00437d30       0x60 /usr/lib/gcc/i686-pc-cygwin/4.9.2/libgfortran.a(list_read.o)
 .text$nml_parse_qualifier.constprop.8
                0x00437d90      0x720 /usr/lib/gcc/i686-pc-cygwin/4.9.2/libgfortran.a(list_read.o)
 .text$nml_query
                0x004384b0      0x170 /usr/lib/gcc/i686-pc-cygwin/4.9.2/libgfortran.a(list_read.o)
 .text$nml_read_obj.constprop.7
                0x00438620      0x590 /usr/lib/gcc/i686-pc-cygwin/4.9.2/libgfortran.a(list_read.o)
 .text$nml_write_obj
                0x00438bb0      0x7c0 /usr/lib/gcc/i686-pc-cygwin/4.9.2/libgfortran.a(write.o)
 .text$output_float
                0x00439370      0xe70 /usr/lib/gcc/i686-pc-cygwin/4.9.2/libgfortran.a(write.o)
 .text$parse_format_list
                0x0043a1e0      0xa70 /usr/lib/gcc/i686-pc-cygwin/4.9.2/libgfortran.a(format.o)
 .text$parse_real
                0x0043ac50      0x680 /usr/lib/gcc/i686-pc-cygwin/4.9.2/libgfortran.a(list_read.o)
 .text$parse_repeat
                0x0043b2d0      0x1a0 /usr/lib/gcc/i686-pc-cygwin/4.9.2/libgfortran.a(list_read.o)
 .text$pre_position
                0x0043b470       0x80 /usr/lib/gcc/i686-pc-cygwin/4.9.2/libgfortran.a(transfer.o)
 .text$push_char
                0x0043b4f0       0xf0 /usr/lib/gcc/i686-pc-cygwin/4.9.2/libgfortran.a(list_read.o)
 .text$raw_close
                0x0043b5e0       0x40 /usr/lib/gcc/i686-pc-cygwin/4.9.2/libgfortran.a(unix.o)
 .text$raw_flush
                0x0043b620       0x10 /usr/lib/gcc/i686-pc-cygwin/4.9.2/libgfortran.a(unix.o)
 .text$raw_read
                0x0043b630       0x10 /usr/lib/gcc/i686-pc-cygwin/4.9.2/libgfortran.a(unix.o)
 .text$raw_seek
                0x0043b640       0x10 /usr/lib/gcc/i686-pc-cygwin/4.9.2/libgfortran.a(unix.o)
 .text$raw_size
                0x0043b650       0x60 /usr/lib/gcc/i686-pc-cygwin/4.9.2/libgfortran.a(unix.o)
 .text$raw_tell
                0x0043b6b0       0x30 /usr/lib/gcc/i686-pc-cygwin/4.9.2/libgfortran.a(unix.o)
 .text$raw_truncate
                0x0043b6e0       0x10 /usr/lib/gcc/i686-pc-cygwin/4.9.2/libgfortran.a(unix.o)
 .text$raw_write
                0x0043b6f0       0x70 /usr/lib/gcc/i686-pc-cygwin/4.9.2/libgfortran.a(unix.o)
 .text$read_a_char4
                0x0043b760      0x1b0 /usr/lib/gcc/i686-pc-cygwin/4.9.2/libgfortran.a(read.o)
                0x0043b760                read_a_char4
 .text$read_character.isra.3
                0x0043b910      0x350 /usr/lib/gcc/i686-pc-cygwin/4.9.2/libgfortran.a(list_read.o)
 .text$read_complex
                0x0043bc60      0x2b0 /usr/lib/gcc/i686-pc-cygwin/4.9.2/libgfortran.a(list_read.o)
 .text$read_integer
                0x0043bf10      0x300 /usr/lib/gcc/i686-pc-cygwin/4.9.2/libgfortran.a(list_read.o)
 .text$read_logical
                0x0043c210      0x4c0 /usr/lib/gcc/i686-pc-cygwin/4.9.2/libgfortran.a(list_read.o)
 .text$read_real
                0x0043c6d0      0x980 /usr/lib/gcc/i686-pc-cygwin/4.9.2/libgfortran.a(list_read.o)
 .text$read_utf8
                0x0043d050      0x140 /usr/lib/gcc/i686-pc-cygwin/4.9.2/libgfortran.a(read.o)
 .text$report_exception.part.0
                0x0043d190       0xe0 /usr/lib/gcc/i686-pc-cygwin/4.9.2/libgfortran.a(stop.o)
 .text$require_numeric_type
                0x0043d270       0x80 /usr/lib/gcc/i686-pc-cygwin/4.9.2/libgfortran.a(transfer.o)
 .text$require_type.part.8
                0x0043d2f0       0x80 /usr/lib/gcc/i686-pc-cygwin/4.9.2/libgfortran.a(transfer.o)
 .text$reset_node
                0x0043d370       0x40 /usr/lib/gcc/i686-pc-cygwin/4.9.2/libgfortran.a(format.o)
 .text$search_unit
                0x0043d3b0       0x80 /usr/lib/gcc/i686-pc-cygwin/4.9.2/libgfortran.a(environ.o)
 .text$set_fnode_default
                0x0043d430       0xa0 /usr/lib/gcc/i686-pc-cygwin/4.9.2/libgfortran.a(write.o)
 .text$show_boolean
                0x0043d4d0       0x70 /usr/lib/gcc/i686-pc-cygwin/4.9.2/libgfortran.a(environ.o)
 .text$show_integer
                0x0043d540       0x60 /usr/lib/gcc/i686-pc-cygwin/4.9.2/libgfortran.a(environ.o)
 .text$show_sep
                0x0043d5a0       0x60 /usr/lib/gcc/i686-pc-cygwin/4.9.2/libgfortran.a(environ.o)
 .text$show_string
                0x0043d600       0x80 /usr/lib/gcc/i686-pc-cygwin/4.9.2/libgfortran.a(environ.o)
 .text$skip_record
                0x0043d680      0x130 /usr/lib/gcc/i686-pc-cygwin/4.9.2/libgfortran.a(transfer.o)
 .text$sset     0x0043d7b0       0xf0 /usr/lib/gcc/i686-pc-cygwin/4.9.2/libgfortran.a(transfer.o)
 .text$tempfile_open
                0x0043d8a0       0xb0 /usr/lib/gcc/i686-pc-cygwin/4.9.2/libgfortran.a(unix.o)
 .text$test_endfile.isra.0.part.1
                0x0043d950       0x50 /usr/lib/gcc/i686-pc-cygwin/4.9.2/libgfortran.a(open.o)
 .text$trace_function
                0x0043d9a0      0x210 /usr/lib/gcc/i686-pc-cygwin/4.9.2/libgfortran.a(backtrace.o)
 .text$unformatted_read
                0x0043dbb0      0x390 /usr/lib/gcc/i686-pc-cygwin/4.9.2/libgfortran.a(transfer.o)
 .text$unformatted_write
                0x0043df40       0x60 /usr/lib/gcc/i686-pc-cygwin/4.9.2/libgfortran.a(transfer.o)
 .text$unformatted_write.part.4
                0x0043dfa0       0xe0 /usr/lib/gcc/i686-pc-cygwin/4.9.2/libgfortran.a(transfer.o)
 .text$us_read  0x0043e080      0x180 /usr/lib/gcc/i686-pc-cygwin/4.9.2/libgfortran.a(transfer.o)
 .text$us_write
                0x0043e200       0x90 /usr/lib/gcc/i686-pc-cygwin/4.9.2/libgfortran.a(transfer.o)
 .text$write_boz.isra.8
                0x0043e290      0x2c0 /usr/lib/gcc/i686-pc-cygwin/4.9.2/libgfortran.a(write.o)
 .text$write_buf
                0x0043e550      0x260 /usr/lib/gcc/i686-pc-cygwin/4.9.2/libgfortran.a(transfer.o)
 .text$write_char
                0x0043e7b0       0x50 /usr/lib/gcc/i686-pc-cygwin/4.9.2/libgfortran.a(write.o)
 .text$write_character
                0x0043e800      0x240 /usr/lib/gcc/i686-pc-cygwin/4.9.2/libgfortran.a(write.o)
 .text$write_complex
                0x0043ea40       0x90 /usr/lib/gcc/i686-pc-cygwin/4.9.2/libgfortran.a(write.o)
 .text$write_default_char4
                0x0043ead0      0x1a0 /usr/lib/gcc/i686-pc-cygwin/4.9.2/libgfortran.a(write.o)
 .text$write_float
                0x0043ec70     0x2380 /usr/lib/gcc/i686-pc-cygwin/4.9.2/libgfortran.a(write.o)
 .text$write_infnan.isra.3
                0x00440ff0      0x320 /usr/lib/gcc/i686-pc-cygwin/4.9.2/libgfortran.a(write.o)
 .text$write_integer
                0x00441310      0x280 /usr/lib/gcc/i686-pc-cygwin/4.9.2/libgfortran.a(write.o)
 .text$write_us_marker.isra.3
                0x00441590      0x110 /usr/lib/gcc/i686-pc-cygwin/4.9.2/libgfortran.a(transfer.o)
 .text$write_utf8_char4
                0x004416a0      0x1b0 /usr/lib/gcc/i686-pc-cygwin/4.9.2/libgfortran.a(write.o)
 *(.text.*)
 .text.unlikely
                0x00441850        0x0 /usr/lib/gcc/i686-pc-cygwin/4.9.2/crtbegin.o
 .text.unlikely
                0x00441850        0x0 obj/imploc.o
 .text.startup  0x00441850       0x40 obj/imploc.o
                0x00441850                main
 .text.unlikely
                0x00441890        0x0 obj/io_list.o
 .text.unlikely
                0x00441890        0x0 obj/mensamod.o
 .text.unlikely
                0x00441890        0x0 obj/zcomm.o
 .text.unlikely
                0x00441890        0x0 obj/getoptm.o
 .text.unlikely
                0x00441890        0x0 obj/mlogit.o
 .text.unlikely
                0x00441890        0x0 obj/mpowit.o
 .text.unlikely
                0x00441890        0x0 obj/distribm.o
 .text.unlikely
                0x00441890        0x0 obj/lcomm.o
 .text.unlikely
                0x00441890        0x0 obj/control.o
 .text.unlikely
                0x00441890        0x0 obj/gener.o
 .text.unlikely
                0x00441890        0x0 obj/param.o
 .text.unlikely
                0x00441890        0x0 obj/optionsm.o
 .text.unlikely
                0x00441890        0x0 obj/debugm.o
 .text.unlikely.__gfortrani_backtrace_handler
                0x00441890        0x0 /usr/lib/gcc/i686-pc-cygwin/4.9.2/libgfortran.a(compile_options.o)
 .text.unlikely.__gfortran_set_options
                0x00441890        0x0 /usr/lib/gcc/i686-pc-cygwin/4.9.2/libgfortran.a(compile_options.o)
 .text.unlikely.__gfortrani_init_compile_options
                0x00441890        0x0 /usr/lib/gcc/i686-pc-cygwin/4.9.2/libgfortran.a(compile_options.o)
 .text.unlikely.__gfortran_set_convert
                0x00441890        0x0 /usr/lib/gcc/i686-pc-cygwin/4.9.2/libgfortran.a(compile_options.o)
 .text.unlikely.__gfortran_set_record_marker
                0x00441890        0x0 /usr/lib/gcc/i686-pc-cygwin/4.9.2/libgfortran.a(compile_options.o)
 .text.unlikely.__gfortran_set_max_subrecord_length
                0x00441890        0x0 /usr/lib/gcc/i686-pc-cygwin/4.9.2/libgfortran.a(compile_options.o)
 .text.unlikely.init_string
                0x00441890        0x0 /usr/lib/gcc/i686-pc-cygwin/4.9.2/libgfortran.a(environ.o)
 .text.unlikely.search_unit
                0x00441890        0x0 /usr/lib/gcc/i686-pc-cygwin/4.9.2/libgfortran.a(environ.o)
 .text.unlikely.init_boolean
                0x00441890        0x0 /usr/lib/gcc/i686-pc-cygwin/4.9.2/libgfortran.a(environ.o)
 .text.unlikely.init_sep
                0x00441890        0x0 /usr/lib/gcc/i686-pc-cygwin/4.9.2/libgfortran.a(environ.o)
 .text.unlikely.match_word
                0x00441890        0x0 /usr/lib/gcc/i686-pc-cygwin/4.9.2/libgfortran.a(environ.o)
 .text.unlikely.next_token
                0x00441890        0x0 /usr/lib/gcc/i686-pc-cygwin/4.9.2/libgfortran.a(environ.o)
 .text.unlikely.show_sep
                0x00441890        0x0 /usr/lib/gcc/i686-pc-cygwin/4.9.2/libgfortran.a(environ.o)
 .text.unlikely.show_boolean
                0x00441890        0x0 /usr/lib/gcc/i686-pc-cygwin/4.9.2/libgfortran.a(environ.o)
 .text.unlikely.show_integer
                0x00441890        0x0 /usr/lib/gcc/i686-pc-cygwin/4.9.2/libgfortran.a(environ.o)
 .text.unlikely.init_unsigned_integer
                0x00441890        0x0 /usr/lib/gcc/i686-pc-cygwin/4.9.2/libgfortran.a(environ.o)
 .text.unlikely.init_integer
                0x00441890        0x0 /usr/lib/gcc/i686-pc-cygwin/4.9.2/libgfortran.a(environ.o)
 .text.unlikely.show_string
                0x00441890        0x0 /usr/lib/gcc/i686-pc-cygwin/4.9.2/libgfortran.a(environ.o)
 .text.unlikely.mark_single
                0x00441890        0x0 /usr/lib/gcc/i686-pc-cygwin/4.9.2/libgfortran.a(environ.o)
 .text.unlikely.do_parse
                0x00441890        0x0 /usr/lib/gcc/i686-pc-cygwin/4.9.2/libgfortran.a(environ.o)
 .text.unlikely.init_unformatted
                0x00441890        0x0 /usr/lib/gcc/i686-pc-cygwin/4.9.2/libgfortran.a(environ.o)
 .text.unlikely.__gfortrani_secure_getenv
                0x00441890        0x0 /usr/lib/gcc/i686-pc-cygwin/4.9.2/libgfortran.a(environ.o)
 .text.unlikely.__gfortrani_init_variables
                0x00441890        0x0 /usr/lib/gcc/i686-pc-cygwin/4.9.2/libgfortran.a(environ.o)
 .text.unlikely.__gfortrani_show_variables
                0x00441890        0x0 /usr/lib/gcc/i686-pc-cygwin/4.9.2/libgfortran.a(environ.o)
 .text.unlikely.__gfortrani_get_unformatted_convert
                0x00441890        0x0 /usr/lib/gcc/i686-pc-cygwin/4.9.2/libgfortran.a(environ.o)
 .text.unlikely.__gfortrani_estr_write
                0x00441890        0x0 /usr/lib/gcc/i686-pc-cygwin/4.9.2/libgfortran.a(error.o)
 .text.unlikely.__gfortrani_st_vprintf
                0x00441890        0x0 /usr/lib/gcc/i686-pc-cygwin/4.9.2/libgfortran.a(error.o)
 .text.unlikely.__gfortrani_st_printf
                0x00441890        0x0 /usr/lib/gcc/i686-pc-cygwin/4.9.2/libgfortran.a(error.o)
 .text.unlikely.__gfortrani_sys_abort
                0x00441890        0x0 /usr/lib/gcc/i686-pc-cygwin/4.9.2/libgfortran.a(error.o)
 .text.unlikely.__gfortrani_gfc_xtoa
                0x00441890        0x0 /usr/lib/gcc/i686-pc-cygwin/4.9.2/libgfortran.a(error.o)
 .text.unlikely.__gfortrani_gf_strerror
                0x00441890        0x0 /usr/lib/gcc/i686-pc-cygwin/4.9.2/libgfortran.a(error.o)
 .text.unlikely.__gfortrani_show_locus
                0x00441890        0x0 /usr/lib/gcc/i686-pc-cygwin/4.9.2/libgfortran.a(error.o)
 .text.unlikely.__gfortran_os_error
                0x00441890        0x0 /usr/lib/gcc/i686-pc-cygwin/4.9.2/libgfortran.a(error.o)
 .text.unlikely.__gfortran_runtime_error
                0x00441890        0x0 /usr/lib/gcc/i686-pc-cygwin/4.9.2/libgfortran.a(error.o)
 .text.unlikely.__gfortran_runtime_error_at
                0x00441890        0x0 /usr/lib/gcc/i686-pc-cygwin/4.9.2/libgfortran.a(error.o)
 .text.unlikely.__gfortran_runtime_warning_at
                0x00441890        0x0 /usr/lib/gcc/i686-pc-cygwin/4.9.2/libgfortran.a(error.o)
 .text.unlikely.__gfortrani_internal_error
                0x00441890        0x0 /usr/lib/gcc/i686-pc-cygwin/4.9.2/libgfortran.a(error.o)
 .text.unlikely.__gfortrani_translate_error
                0x00441890        0x0 /usr/lib/gcc/i686-pc-cygwin/4.9.2/libgfortran.a(error.o)
 .text.unlikely.__gfortran_generate_error
                0x00441890        0x0 /usr/lib/gcc/i686-pc-cygwin/4.9.2/libgfortran.a(error.o)
 .text.unlikely.__gfortrani_generate_warning
                0x00441890        0x0 /usr/lib/gcc/i686-pc-cygwin/4.9.2/libgfortran.a(error.o)
 .text.unlikely.__gfortrani_notification_std
                0x00441890        0x0 /usr/lib/gcc/i686-pc-cygwin/4.9.2/libgfortran.a(error.o)
 .text.unlikely.__gfortrani_notify_std
                0x00441890        0x0 /usr/lib/gcc/i686-pc-cygwin/4.9.2/libgfortran.a(error.o)
 .text.unlikely.__gfortrani_stupid_function_name_for_static_linking
                0x00441890        0x0 /usr/lib/gcc/i686-pc-cygwin/4.9.2/libgfortran.a(main.o)
 .text.unlikely.__gfortran_store_exe_path
                0x00441890        0x0 /usr/lib/gcc/i686-pc-cygwin/4.9.2/libgfortran.a(main.o)
 .text.unlikely.__gfortrani_full_exe_path
                0x00441890        0x0 /usr/lib/gcc/i686-pc-cygwin/4.9.2/libgfortran.a(main.o)
 .text.unlikely.__gfortrani_find_addr2line
                0x00441890        0x0 /usr/lib/gcc/i686-pc-cygwin/4.9.2/libgfortran.a(main.o)
 .text.unlikely.__gfortran_set_args
                0x00441890        0x0 /usr/lib/gcc/i686-pc-cygwin/4.9.2/libgfortran.a(main.o)
 .text.unlikely.__gfortrani_get_args
                0x00441890        0x0 /usr/lib/gcc/i686-pc-cygwin/4.9.2/libgfortran.a(main.o)
 .text.unlikely.init
                0x00441890        0x0 /usr/lib/gcc/i686-pc-cygwin/4.9.2/libgfortran.a(main.o)
 .text.startup.init
                0x00441890       0x60 /usr/lib/gcc/i686-pc-cygwin/4.9.2/libgfortran.a(main.o)
 .text.unlikely.cleanup
                0x004418f0        0x0 /usr/lib/gcc/i686-pc-cygwin/4.9.2/libgfortran.a(main.o)
 .text.exit.cleanup
                0x004418f0       0x30 /usr/lib/gcc/i686-pc-cygwin/4.9.2/libgfortran.a(main.o)
 .text.unlikely.__gfortrani_xmalloc
                0x00441920        0x0 /usr/lib/gcc/i686-pc-cygwin/4.9.2/libgfortran.a(memory.o)
 .text.unlikely.__gfortrani_xmallocarray
                0x00441920        0x0 /usr/lib/gcc/i686-pc-cygwin/4.9.2/libgfortran.a(memory.o)
 .text.unlikely.__gfortrani_xcalloc
                0x00441920        0x0 /usr/lib/gcc/i686-pc-cygwin/4.9.2/libgfortran.a(memory.o)
 .text.unlikely.report_exception.part.0
                0x00441920        0x0 /usr/lib/gcc/i686-pc-cygwin/4.9.2/libgfortran.a(stop.o)
 .text.unlikely.__gfortran_stop_numeric
                0x00441920        0x0 /usr/lib/gcc/i686-pc-cygwin/4.9.2/libgfortran.a(stop.o)
 .text.unlikely.__gfortran_stop_numeric_f08
                0x00441920        0x0 /usr/lib/gcc/i686-pc-cygwin/4.9.2/libgfortran.a(stop.o)
 .text.unlikely.__gfortran_stop_string
                0x00441920        0x0 /usr/lib/gcc/i686-pc-cygwin/4.9.2/libgfortran.a(stop.o)
 .text.unlikely.__gfortran_error_stop_string
                0x00441920        0x0 /usr/lib/gcc/i686-pc-cygwin/4.9.2/libgfortran.a(stop.o)
 .text.unlikely.__gfortran_error_stop_numeric
                0x00441920        0x0 /usr/lib/gcc/i686-pc-cygwin/4.9.2/libgfortran.a(stop.o)
 .text.unlikely.__gfortrani_fstrlen
                0x00441920        0x0 /usr/lib/gcc/i686-pc-cygwin/4.9.2/libgfortran.a(string.o)
 .text.unlikely.__gfortrani_fstrcpy
                0x00441920        0x0 /usr/lib/gcc/i686-pc-cygwin/4.9.2/libgfortran.a(string.o)
 .text.unlikely.__gfortrani_cf_strcpy
                0x00441920        0x0 /usr/lib/gcc/i686-pc-cygwin/4.9.2/libgfortran.a(string.o)
 .text.unlikely.__gfortrani_find_option
                0x00441920        0x0 /usr/lib/gcc/i686-pc-cygwin/4.9.2/libgfortran.a(string.o)
 .text.unlikely.__gfortran_st_close
                0x00441920        0x0 /usr/lib/gcc/i686-pc-cygwin/4.9.2/libgfortran.a(close.o)
 .text.unlikely.__gfortran_st_backspace
                0x00441920        0x0 /usr/lib/gcc/i686-pc-cygwin/4.9.2/libgfortran.a(file_pos.o)
 .text.unlikely.__gfortran_st_endfile
                0x00441920        0x0 /usr/lib/gcc/i686-pc-cygwin/4.9.2/libgfortran.a(file_pos.o)
 .text.unlikely.__gfortran_st_rewind
                0x00441920        0x0 /usr/lib/gcc/i686-pc-cygwin/4.9.2/libgfortran.a(file_pos.o)
 .text.unlikely.__gfortran_st_flush
                0x00441920        0x0 /usr/lib/gcc/i686-pc-cygwin/4.9.2/libgfortran.a(file_pos.o)
 .text.unlikely.inquire_via_unit
                0x00441920        0x0 /usr/lib/gcc/i686-pc-cygwin/4.9.2/libgfortran.a(inquire.o)
 .text.unlikely.__gfortran_st_inquire
                0x00441920        0x0 /usr/lib/gcc/i686-pc-cygwin/4.9.2/libgfortran.a(inquire.o)
 .text.unlikely.__gfortrani_library_start
                0x00441920        0x0 /usr/lib/gcc/i686-pc-cygwin/4.9.2/libgfortran.a(lock.o)
 .text.unlikely.__gfortrani_free_ionml
                0x00441920        0x0 /usr/lib/gcc/i686-pc-cygwin/4.9.2/libgfortran.a(lock.o)
 .text.unlikely.test_endfile.isra.0.part.1
                0x00441920        0x0 /usr/lib/gcc/i686-pc-cygwin/4.9.2/libgfortran.a(open.o)
 .text.unlikely.edit_modes
                0x00441920        0x0 /usr/lib/gcc/i686-pc-cygwin/4.9.2/libgfortran.a(open.o)
 .text.unlikely.__gfortrani_new_unit
                0x00441920        0x0 /usr/lib/gcc/i686-pc-cygwin/4.9.2/libgfortran.a(open.o)
 .text.unlikely.__gfortran_st_open
                0x00441920        0x0 /usr/lib/gcc/i686-pc-cygwin/4.9.2/libgfortran.a(open.o)
 .text.unlikely.us_write
                0x00441920        0x0 /usr/lib/gcc/i686-pc-cygwin/4.9.2/libgfortran.a(transfer.o)
 .text.unlikely.skip_record
                0x00441920        0x0 /usr/lib/gcc/i686-pc-cygwin/4.9.2/libgfortran.a(transfer.o)
 .text.unlikely.sset
                0x00441920        0x0 /usr/lib/gcc/i686-pc-cygwin/4.9.2/libgfortran.a(transfer.o)
 .text.unlikely.bswap_array
                0x00441920        0x0 /usr/lib/gcc/i686-pc-cygwin/4.9.2/libgfortran.a(transfer.o)
 .text.unlikely.iolength_transfer
                0x00441920        0x0 /usr/lib/gcc/i686-pc-cygwin/4.9.2/libgfortran.a(transfer.o)
 .text.unlikely.write_us_marker.isra.3
                0x00441920        0x0 /usr/lib/gcc/i686-pc-cygwin/4.9.2/libgfortran.a(transfer.o)
 .text.unlikely.next_record_w_unf
                0x00441920        0x0 /usr/lib/gcc/i686-pc-cygwin/4.9.2/libgfortran.a(transfer.o)
 .text.unlikely.write_buf
                0x00441920        0x0 /usr/lib/gcc/i686-pc-cygwin/4.9.2/libgfortran.a(transfer.o)
 .text.unlikely.unformatted_write.part.4
                0x00441920        0x0 /usr/lib/gcc/i686-pc-cygwin/4.9.2/libgfortran.a(transfer.o)
 .text.unlikely.unformatted_write
                0x00441920        0x0 /usr/lib/gcc/i686-pc-cygwin/4.9.2/libgfortran.a(transfer.o)
 .text.unlikely.__gfortran_transfer_real.part.10
                0x00441920        0x0 /usr/lib/gcc/i686-pc-cygwin/4.9.2/libgfortran.a(transfer.o)
 .text.unlikely.__gfortran_transfer_character.part.12
                0x00441920        0x0 /usr/lib/gcc/i686-pc-cygwin/4.9.2/libgfortran.a(transfer.o)
 .text.unlikely.__gfortran_transfer_character_wide.part.13
                0x00441920        0x0 /usr/lib/gcc/i686-pc-cygwin/4.9.2/libgfortran.a(transfer.o)
 .text.unlikely.__gfortran_transfer_complex.part.14
                0x00441920        0x0 /usr/lib/gcc/i686-pc-cygwin/4.9.2/libgfortran.a(transfer.o)
 .text.unlikely.__gfortrani_write_block
                0x00441920        0x0 /usr/lib/gcc/i686-pc-cygwin/4.9.2/libgfortran.a(transfer.o)
 .text.unlikely.__gfortrani_type_name
                0x00441920        0x0 /usr/lib/gcc/i686-pc-cygwin/4.9.2/libgfortran.a(transfer.o)
 .text.unlikely.require_numeric_type
                0x00441920        0x0 /usr/lib/gcc/i686-pc-cygwin/4.9.2/libgfortran.a(transfer.o)
 .text.unlikely.require_type.part.8
                0x00441920        0x0 /usr/lib/gcc/i686-pc-cygwin/4.9.2/libgfortran.a(transfer.o)
 .text.unlikely.__gfortran_transfer_integer
                0x00441920        0x0 /usr/lib/gcc/i686-pc-cygwin/4.9.2/libgfortran.a(transfer.o)
 .text.unlikely.__gfortran_transfer_integer_write
                0x00441920        0x0 /usr/lib/gcc/i686-pc-cygwin/4.9.2/libgfortran.a(transfer.o)
 .text.unlikely.__gfortran_transfer_real
                0x00441920        0x0 /usr/lib/gcc/i686-pc-cygwin/4.9.2/libgfortran.a(transfer.o)
 .text.unlikely.__gfortran_transfer_real_write
                0x00441920        0x0 /usr/lib/gcc/i686-pc-cygwin/4.9.2/libgfortran.a(transfer.o)
 .text.unlikely.__gfortran_transfer_logical
                0x00441920        0x0 /usr/lib/gcc/i686-pc-cygwin/4.9.2/libgfortran.a(transfer.o)
 .text.unlikely.__gfortran_transfer_logical_write
                0x00441920        0x0 /usr/lib/gcc/i686-pc-cygwin/4.9.2/libgfortran.a(transfer.o)
 .text.unlikely.__gfortran_transfer_character
                0x00441920        0x0 /usr/lib/gcc/i686-pc-cygwin/4.9.2/libgfortran.a(transfer.o)
 .text.unlikely.__gfortran_transfer_character_write
                0x00441920        0x0 /usr/lib/gcc/i686-pc-cygwin/4.9.2/libgfortran.a(transfer.o)
 .text.unlikely.__gfortran_transfer_character_wide
                0x00441920        0x0 /usr/lib/gcc/i686-pc-cygwin/4.9.2/libgfortran.a(transfer.o)
 .text.unlikely.__gfortran_transfer_character_wide_write
                0x00441920        0x0 /usr/lib/gcc/i686-pc-cygwin/4.9.2/libgfortran.a(transfer.o)
 .text.unlikely.__gfortran_transfer_complex
                0x00441920        0x0 /usr/lib/gcc/i686-pc-cygwin/4.9.2/libgfortran.a(transfer.o)
 .text.unlikely.__gfortran_transfer_complex_write
                0x00441920        0x0 /usr/lib/gcc/i686-pc-cygwin/4.9.2/libgfortran.a(transfer.o)
 .text.unlikely.__gfortran_transfer_array
                0x00441920        0x0 /usr/lib/gcc/i686-pc-cygwin/4.9.2/libgfortran.a(transfer.o)
 .text.unlikely.__gfortran_transfer_array_write
                0x00441920        0x0 /usr/lib/gcc/i686-pc-cygwin/4.9.2/libgfortran.a(transfer.o)
 .text.unlikely.__gfortrani_init_loop_spec
                0x00441920        0x0 /usr/lib/gcc/i686-pc-cygwin/4.9.2/libgfortran.a(transfer.o)
 .text.unlikely.__gfortrani_next_array_record
                0x00441920        0x0 /usr/lib/gcc/i686-pc-cygwin/4.9.2/libgfortran.a(transfer.o)
 .text.unlikely.__gfortran_st_iolength
                0x00441920        0x0 /usr/lib/gcc/i686-pc-cygwin/4.9.2/libgfortran.a(transfer.o)
 .text.unlikely.__gfortran_st_iolength_done
                0x00441920        0x0 /usr/lib/gcc/i686-pc-cygwin/4.9.2/libgfortran.a(transfer.o)
 .text.unlikely.__gfortran_st_wait
                0x00441920        0x0 /usr/lib/gcc/i686-pc-cygwin/4.9.2/libgfortran.a(transfer.o)
 .text.unlikely.__gfortran_st_set_nml_var
                0x00441920        0x0 /usr/lib/gcc/i686-pc-cygwin/4.9.2/libgfortran.a(transfer.o)
 .text.unlikely.__gfortran_st_set_nml_var_dim
                0x00441920        0x0 /usr/lib/gcc/i686-pc-cygwin/4.9.2/libgfortran.a(transfer.o)
 .text.unlikely.__gfortrani_hit_eof
                0x00441920        0x0 /usr/lib/gcc/i686-pc-cygwin/4.9.2/libgfortran.a(transfer.o)
 .text.unlikely.__gfortrani_read_block_form
                0x00441920        0x0 /usr/lib/gcc/i686-pc-cygwin/4.9.2/libgfortran.a(transfer.o)
 .text.unlikely.__gfortrani_read_block_form4
                0x00441920        0x0 /usr/lib/gcc/i686-pc-cygwin/4.9.2/libgfortran.a(transfer.o)
 .text.unlikely.us_read
                0x00441920        0x0 /usr/lib/gcc/i686-pc-cygwin/4.9.2/libgfortran.a(transfer.o)
 .text.unlikely.pre_position
                0x00441920        0x0 /usr/lib/gcc/i686-pc-cygwin/4.9.2/libgfortran.a(transfer.o)
 .text.unlikely.__gfortrani_next_record
                0x00441920        0x0 /usr/lib/gcc/i686-pc-cygwin/4.9.2/libgfortran.a(transfer.o)
 .text.unlikely.formatted_transfer
                0x00441920        0x0 /usr/lib/gcc/i686-pc-cygwin/4.9.2/libgfortran.a(transfer.o)
 .text.unlikely.data_transfer_init
                0x00441920        0x0 /usr/lib/gcc/i686-pc-cygwin/4.9.2/libgfortran.a(transfer.o)
 .text.unlikely.__gfortran_st_read
                0x00441920        0x0 /usr/lib/gcc/i686-pc-cygwin/4.9.2/libgfortran.a(transfer.o)
 .text.unlikely.__gfortran_st_write
                0x00441920        0x0 /usr/lib/gcc/i686-pc-cygwin/4.9.2/libgfortran.a(transfer.o)
 .text.unlikely.finalize_transfer
                0x00441920        0x0 /usr/lib/gcc/i686-pc-cygwin/4.9.2/libgfortran.a(transfer.o)
 .text.unlikely.__gfortran_st_read_done
                0x00441920        0x0 /usr/lib/gcc/i686-pc-cygwin/4.9.2/libgfortran.a(transfer.o)
 .text.unlikely.__gfortran_st_write_done
                0x00441920        0x0 /usr/lib/gcc/i686-pc-cygwin/4.9.2/libgfortran.a(transfer.o)
 .text.unlikely.unformatted_read
                0x00441920        0x0 /usr/lib/gcc/i686-pc-cygwin/4.9.2/libgfortran.a(transfer.o)
 .text.unlikely.delete_root
                0x00441920        0x0 /usr/lib/gcc/i686-pc-cygwin/4.9.2/libgfortran.a(unit.o)
 .text.unlikely.delete_treap
                0x00441920        0x0 /usr/lib/gcc/i686-pc-cygwin/4.9.2/libgfortran.a(unit.o)
 .text.unlikely.insert
                0x00441920        0x0 /usr/lib/gcc/i686-pc-cygwin/4.9.2/libgfortran.a(unit.o)
 .text.unlikely.insert_unit
                0x00441920        0x0 /usr/lib/gcc/i686-pc-cygwin/4.9.2/libgfortran.a(unit.o)
 .text.unlikely.get_external_unit
                0x00441920        0x0 /usr/lib/gcc/i686-pc-cygwin/4.9.2/libgfortran.a(unit.o)
 .text.unlikely.__gfortrani_find_unit
                0x00441920        0x0 /usr/lib/gcc/i686-pc-cygwin/4.9.2/libgfortran.a(unit.o)
 .text.unlikely.__gfortrani_find_or_create_unit
                0x00441920        0x0 /usr/lib/gcc/i686-pc-cygwin/4.9.2/libgfortran.a(unit.o)
 .text.unlikely.__gfortrani_get_internal_unit
                0x00441920        0x0 /usr/lib/gcc/i686-pc-cygwin/4.9.2/libgfortran.a(unit.o)
 .text.unlikely.__gfortrani_free_internal_unit
                0x00441920        0x0 /usr/lib/gcc/i686-pc-cygwin/4.9.2/libgfortran.a(unit.o)
 .text.unlikely.__gfortrani_get_unit
                0x00441920        0x0 /usr/lib/gcc/i686-pc-cygwin/4.9.2/libgfortran.a(unit.o)
 .text.unlikely.__gfortrani_init_units
                0x00441920        0x0 /usr/lib/gcc/i686-pc-cygwin/4.9.2/libgfortran.a(unit.o)
 .text.unlikely.__gfortrani_unlock_unit
                0x00441920        0x0 /usr/lib/gcc/i686-pc-cygwin/4.9.2/libgfortran.a(unit.o)
 .text.unlikely.__gfortrani_unit_truncate
                0x00441920        0x0 /usr/lib/gcc/i686-pc-cygwin/4.9.2/libgfortran.a(unit.o)
 .text.unlikely.__gfortrani_filename_from_unit
                0x00441920        0x0 /usr/lib/gcc/i686-pc-cygwin/4.9.2/libgfortran.a(unit.o)
 .text.unlikely.__gfortrani_finish_last_advance_record
                0x00441920        0x0 /usr/lib/gcc/i686-pc-cygwin/4.9.2/libgfortran.a(unit.o)
 .text.unlikely.close_unit_1
                0x00441920        0x0 /usr/lib/gcc/i686-pc-cygwin/4.9.2/libgfortran.a(unit.o)
 .text.unlikely.__gfortrani_close_unit
                0x00441920        0x0 /usr/lib/gcc/i686-pc-cygwin/4.9.2/libgfortran.a(unit.o)
 .text.unlikely.__gfortrani_close_units
                0x00441920        0x0 /usr/lib/gcc/i686-pc-cygwin/4.9.2/libgfortran.a(unit.o)
 .text.unlikely.__gfortrani_get_unique_unit_number
                0x00441920        0x0 /usr/lib/gcc/i686-pc-cygwin/4.9.2/libgfortran.a(unit.o)
 .text.unlikely.raw_flush
                0x00441920        0x0 /usr/lib/gcc/i686-pc-cygwin/4.9.2/libgfortran.a(unix.o)
 .text.unlikely.buf_size
                0x00441920        0x0 /usr/lib/gcc/i686-pc-cygwin/4.9.2/libgfortran.a(unix.o)
 .text.unlikely.mem_write4
                0x00441920        0x0 /usr/lib/gcc/i686-pc-cygwin/4.9.2/libgfortran.a(unix.o)
 .text.unlikely.mem_tell
                0x00441920        0x0 /usr/lib/gcc/i686-pc-cygwin/4.9.2/libgfortran.a(unix.o)
 .text.unlikely.mem_truncate
                0x00441920        0x0 /usr/lib/gcc/i686-pc-cygwin/4.9.2/libgfortran.a(unix.o)
 .text.unlikely.mem_flush
                0x00441920        0x0 /usr/lib/gcc/i686-pc-cygwin/4.9.2/libgfortran.a(unix.o)
 .text.unlikely.find_file0
                0x00441920        0x0 /usr/lib/gcc/i686-pc-cygwin/4.9.2/libgfortran.a(unix.o)
 .text.unlikely.mem_close
                0x00441920        0x0 /usr/lib/gcc/i686-pc-cygwin/4.9.2/libgfortran.a(unix.o)
 .text.unlikely.mem_write
                0x00441920        0x0 /usr/lib/gcc/i686-pc-cygwin/4.9.2/libgfortran.a(unix.o)
 .text.unlikely.tempfile_open
                0x00441920        0x0 /usr/lib/gcc/i686-pc-cygwin/4.9.2/libgfortran.a(unix.o)
 .text.unlikely.raw_close
                0x00441920        0x0 /usr/lib/gcc/i686-pc-cygwin/4.9.2/libgfortran.a(unix.o)
 .text.unlikely.fd_to_stream
                0x00441920        0x0 /usr/lib/gcc/i686-pc-cygwin/4.9.2/libgfortran.a(unix.o)
 .text.unlikely.raw_size
                0x00441920        0x0 /usr/lib/gcc/i686-pc-cygwin/4.9.2/libgfortran.a(unix.o)
 .text.unlikely.raw_tell
                0x00441920        0x0 /usr/lib/gcc/i686-pc-cygwin/4.9.2/libgfortran.a(unix.o)
 .text.unlikely.raw_seek
                0x00441920        0x0 /usr/lib/gcc/i686-pc-cygwin/4.9.2/libgfortran.a(unix.o)
 .text.unlikely.raw_write
                0x00441920        0x0 /usr/lib/gcc/i686-pc-cygwin/4.9.2/libgfortran.a(unix.o)
 .text.unlikely.raw_truncate
                0x00441920        0x0 /usr/lib/gcc/i686-pc-cygwin/4.9.2/libgfortran.a(unix.o)
 .text.unlikely.raw_read
                0x00441920        0x0 /usr/lib/gcc/i686-pc-cygwin/4.9.2/libgfortran.a(unix.o)
 .text.unlikely.buf_read
                0x00441920        0x0 /usr/lib/gcc/i686-pc-cygwin/4.9.2/libgfortran.a(unix.o)
 .text.unlikely.flush_all_units_1
                0x00441920        0x0 /usr/lib/gcc/i686-pc-cygwin/4.9.2/libgfortran.a(unix.o)
 .text.unlikely.mem_seek
                0x00441920        0x0 /usr/lib/gcc/i686-pc-cygwin/4.9.2/libgfortran.a(unix.o)
 .text.unlikely.buf_seek
                0x00441920        0x0 /usr/lib/gcc/i686-pc-cygwin/4.9.2/libgfortran.a(unix.o)
 .text.unlikely.buf_tell
                0x00441920        0x0 /usr/lib/gcc/i686-pc-cygwin/4.9.2/libgfortran.a(unix.o)
 .text.unlikely.buf_flush
                0x00441920        0x0 /usr/lib/gcc/i686-pc-cygwin/4.9.2/libgfortran.a(unix.o)
 .text.unlikely.buf_close
                0x00441920        0x0 /usr/lib/gcc/i686-pc-cygwin/4.9.2/libgfortran.a(unix.o)
 .text.unlikely.buf_write
                0x00441920        0x0 /usr/lib/gcc/i686-pc-cygwin/4.9.2/libgfortran.a(unix.o)
 .text.unlikely.buf_truncate
                0x00441920        0x0 /usr/lib/gcc/i686-pc-cygwin/4.9.2/libgfortran.a(unix.o)
 .text.unlikely.__gfortrani_unpack_filename.part.6
                0x00441920        0x0 /usr/lib/gcc/i686-pc-cygwin/4.9.2/libgfortran.a(unix.o)
 .text.unlikely.inquire_access
                0x00441920        0x0 /usr/lib/gcc/i686-pc-cygwin/4.9.2/libgfortran.a(unix.o)
 .text.unlikely.__gfortrani_flush_if_preconnected
                0x00441920        0x0 /usr/lib/gcc/i686-pc-cygwin/4.9.2/libgfortran.a(unix.o)
 .text.unlikely.__gfortrani_mem_alloc_r
                0x00441920        0x0 /usr/lib/gcc/i686-pc-cygwin/4.9.2/libgfortran.a(unix.o)
 .text.unlikely.mem_read
                0x00441920        0x0 /usr/lib/gcc/i686-pc-cygwin/4.9.2/libgfortran.a(unix.o)
 .text.unlikely.__gfortrani_mem_alloc_r4
                0x00441920        0x0 /usr/lib/gcc/i686-pc-cygwin/4.9.2/libgfortran.a(unix.o)
 .text.unlikely.mem_read4
                0x00441920        0x0 /usr/lib/gcc/i686-pc-cygwin/4.9.2/libgfortran.a(unix.o)
 .text.unlikely.__gfortrani_mem_alloc_w
                0x00441920        0x0 /usr/lib/gcc/i686-pc-cygwin/4.9.2/libgfortran.a(unix.o)
 .text.unlikely.__gfortrani_mem_alloc_w4
                0x00441920        0x0 /usr/lib/gcc/i686-pc-cygwin/4.9.2/libgfortran.a(unix.o)
 .text.unlikely.__gfortrani_open_internal
                0x00441920        0x0 /usr/lib/gcc/i686-pc-cygwin/4.9.2/libgfortran.a(unix.o)
 .text.unlikely.__gfortrani_open_internal4
                0x00441920        0x0 /usr/lib/gcc/i686-pc-cygwin/4.9.2/libgfortran.a(unix.o)
 .text.unlikely.__gfortrani_flush_if_unbuffered
                0x00441920        0x0 /usr/lib/gcc/i686-pc-cygwin/4.9.2/libgfortran.a(unix.o)
 .text.unlikely.__gfortrani_unit_to_fd
                0x00441920        0x0 /usr/lib/gcc/i686-pc-cygwin/4.9.2/libgfortran.a(unix.o)
 .text.unlikely.__gfortrani_unpack_filename
                0x00441920        0x0 /usr/lib/gcc/i686-pc-cygwin/4.9.2/libgfortran.a(unix.o)
 .text.unlikely.__gfortrani_open_external
                0x00441920        0x0 /usr/lib/gcc/i686-pc-cygwin/4.9.2/libgfortran.a(unix.o)
 .text.unlikely.__gfortrani_input_stream
                0x00441920        0x0 /usr/lib/gcc/i686-pc-cygwin/4.9.2/libgfortran.a(unix.o)
 .text.unlikely.__gfortrani_output_stream
                0x00441920        0x0 /usr/lib/gcc/i686-pc-cygwin/4.9.2/libgfortran.a(unix.o)
 .text.unlikely.__gfortrani_error_stream
                0x00441920        0x0 /usr/lib/gcc/i686-pc-cygwin/4.9.2/libgfortran.a(unix.o)
 .text.unlikely.__gfortrani_compare_file_filename
                0x00441920        0x0 /usr/lib/gcc/i686-pc-cygwin/4.9.2/libgfortran.a(unix.o)
 .text.unlikely.__gfortrani_find_file
                0x00441920        0x0 /usr/lib/gcc/i686-pc-cygwin/4.9.2/libgfortran.a(unix.o)
 .text.unlikely.__gfortrani_flush_all_units
                0x00441920        0x0 /usr/lib/gcc/i686-pc-cygwin/4.9.2/libgfortran.a(unix.o)
 .text.unlikely.__gfortrani_delete_file
                0x00441920        0x0 /usr/lib/gcc/i686-pc-cygwin/4.9.2/libgfortran.a(unix.o)
 .text.unlikely.__gfortrani_file_exists
                0x00441920        0x0 /usr/lib/gcc/i686-pc-cygwin/4.9.2/libgfortran.a(unix.o)
 .text.unlikely.__gfortrani_file_size
                0x00441920        0x0 /usr/lib/gcc/i686-pc-cygwin/4.9.2/libgfortran.a(unix.o)
 .text.unlikely.__gfortrani_inquire_sequential
                0x00441920        0x0 /usr/lib/gcc/i686-pc-cygwin/4.9.2/libgfortran.a(unix.o)
 .text.unlikely.__gfortrani_inquire_direct
                0x00441920        0x0 /usr/lib/gcc/i686-pc-cygwin/4.9.2/libgfortran.a(unix.o)
 .text.unlikely.__gfortrani_inquire_formatted
                0x00441920        0x0 /usr/lib/gcc/i686-pc-cygwin/4.9.2/libgfortran.a(unix.o)
 .text.unlikely.__gfortrani_inquire_unformatted
                0x00441920        0x0 /usr/lib/gcc/i686-pc-cygwin/4.9.2/libgfortran.a(unix.o)
 .text.unlikely.__gfortrani_inquire_read
                0x00441920        0x0 /usr/lib/gcc/i686-pc-cygwin/4.9.2/libgfortran.a(unix.o)
 .text.unlikely.__gfortrani_inquire_write
                0x00441920        0x0 /usr/lib/gcc/i686-pc-cygwin/4.9.2/libgfortran.a(unix.o)
 .text.unlikely.__gfortrani_inquire_readwrite
                0x00441920        0x0 /usr/lib/gcc/i686-pc-cygwin/4.9.2/libgfortran.a(unix.o)
 .text.unlikely.__gfortrani_stream_isatty
                0x00441920        0x0 /usr/lib/gcc/i686-pc-cygwin/4.9.2/libgfortran.a(unix.o)
 .text.unlikely.__gfortrani_stream_ttyname
                0x00441920        0x0 /usr/lib/gcc/i686-pc-cygwin/4.9.2/libgfortran.a(unix.o)
 .text.unlikely.write_char
                0x00441920        0x0 /usr/lib/gcc/i686-pc-cygwin/4.9.2/libgfortran.a(write.o)
 .text.unlikely.write_utf8_char4
                0x00441920        0x0 /usr/lib/gcc/i686-pc-cygwin/4.9.2/libgfortran.a(write.o)
 .text.unlikely.write_default_char4
                0x00441920        0x0 /usr/lib/gcc/i686-pc-cygwin/4.9.2/libgfortran.a(write.o)
 .text.unlikely.write_character
                0x00441920        0x0 /usr/lib/gcc/i686-pc-cygwin/4.9.2/libgfortran.a(write.o)
 .text.unlikely.set_fnode_default
                0x00441920        0x0 /usr/lib/gcc/i686-pc-cygwin/4.9.2/libgfortran.a(write.o)
 .text.unlikely.calculate_sign.isra.0
                0x00441920        0x0 /usr/lib/gcc/i686-pc-cygwin/4.9.2/libgfortran.a(write.o)
 .text.unlikely.output_float
                0x00441920        0x0 /usr/lib/gcc/i686-pc-cygwin/4.9.2/libgfortran.a(write.o)
 .text.unlikely.determine_precision.isra.2
                0x00441920        0x0 /usr/lib/gcc/i686-pc-cygwin/4.9.2/libgfortran.a(write.o)
 .text.unlikely.write_infnan.isra.3
                0x00441920        0x0 /usr/lib/gcc/i686-pc-cygwin/4.9.2/libgfortran.a(write.o)
 .text.unlikely.extract_int
                0x00441920        0x0 /usr/lib/gcc/i686-pc-cygwin/4.9.2/libgfortran.a(write.o)
 .text.unlikely.extract_uint
                0x00441920        0x0 /usr/lib/gcc/i686-pc-cygwin/4.9.2/libgfortran.a(write.o)
 .text.unlikely.write_boz.isra.8
                0x00441920        0x0 /usr/lib/gcc/i686-pc-cygwin/4.9.2/libgfortran.a(write.o)
 .text.unlikely.write_float
                0x00441920        0x0 /usr/lib/gcc/i686-pc-cygwin/4.9.2/libgfortran.a(write.o)
 .text.unlikely.namelist_write_newline
                0x00441920        0x0 /usr/lib/gcc/i686-pc-cygwin/4.9.2/libgfortran.a(write.o)
 .text.unlikely.write_integer
                0x00441920        0x0 /usr/lib/gcc/i686-pc-cygwin/4.9.2/libgfortran.a(write.o)
 .text.unlikely.__gfortrani_write_a
                0x00441920        0x0 /usr/lib/gcc/i686-pc-cygwin/4.9.2/libgfortran.a(write.o)
 .text.unlikely.__gfortrani_write_a_char4
                0x00441920        0x0 /usr/lib/gcc/i686-pc-cygwin/4.9.2/libgfortran.a(write.o)
 .text.unlikely.__gfortrani_write_l
                0x00441920        0x0 /usr/lib/gcc/i686-pc-cygwin/4.9.2/libgfortran.a(write.o)
 .text.unlikely.__gfortrani_write_i
                0x00441920        0x0 /usr/lib/gcc/i686-pc-cygwin/4.9.2/libgfortran.a(write.o)
 .text.unlikely.__gfortrani_write_b
                0x00441920        0x0 /usr/lib/gcc/i686-pc-cygwin/4.9.2/libgfortran.a(write.o)
 .text.unlikely.__gfortrani_write_o
                0x00441920        0x0 /usr/lib/gcc/i686-pc-cygwin/4.9.2/libgfortran.a(write.o)
 .text.unlikely.__gfortrani_write_z
                0x00441920        0x0 /usr/lib/gcc/i686-pc-cygwin/4.9.2/libgfortran.a(write.o)
 .text.unlikely.__gfortrani_write_d
                0x00441920        0x0 /usr/lib/gcc/i686-pc-cygwin/4.9.2/libgfortran.a(write.o)
 .text.unlikely.__gfortrani_write_e
                0x00441920        0x0 /usr/lib/gcc/i686-pc-cygwin/4.9.2/libgfortran.a(write.o)
 .text.unlikely.__gfortrani_write_f
                0x00441920        0x0 /usr/lib/gcc/i686-pc-cygwin/4.9.2/libgfortran.a(write.o)
 .text.unlikely.__gfortrani_write_en
                0x00441920        0x0 /usr/lib/gcc/i686-pc-cygwin/4.9.2/libgfortran.a(write.o)
 .text.unlikely.__gfortrani_write_es
                0x00441920        0x0 /usr/lib/gcc/i686-pc-cygwin/4.9.2/libgfortran.a(write.o)
 .text.unlikely.__gfortrani_write_x
                0x00441920        0x0 /usr/lib/gcc/i686-pc-cygwin/4.9.2/libgfortran.a(write.o)
 .text.unlikely.__gfortrani_write_real
                0x00441920        0x0 /usr/lib/gcc/i686-pc-cygwin/4.9.2/libgfortran.a(write.o)
 .text.unlikely.write_complex
                0x00441920        0x0 /usr/lib/gcc/i686-pc-cygwin/4.9.2/libgfortran.a(write.o)
 .text.unlikely.nml_write_obj
                0x00441920        0x0 /usr/lib/gcc/i686-pc-cygwin/4.9.2/libgfortran.a(write.o)
 .text.unlikely.__gfortrani_write_real_g0
                0x00441920        0x0 /usr/lib/gcc/i686-pc-cygwin/4.9.2/libgfortran.a(write.o)
 .text.unlikely.__gfortrani_list_formatted_write
                0x00441920        0x0 /usr/lib/gcc/i686-pc-cygwin/4.9.2/libgfortran.a(write.o)
 .text.unlikely.__gfortrani_namelist_write
                0x00441920        0x0 /usr/lib/gcc/i686-pc-cygwin/4.9.2/libgfortran.a(write.o)
 .text.unlikely.__gfortrani_fbuf_init
                0x00441920        0x0 /usr/lib/gcc/i686-pc-cygwin/4.9.2/libgfortran.a(fbuf.o)
 .text.unlikely.__gfortrani_fbuf_destroy
                0x00441920        0x0 /usr/lib/gcc/i686-pc-cygwin/4.9.2/libgfortran.a(fbuf.o)
 .text.unlikely.__gfortrani_fbuf_alloc
                0x00441920        0x0 /usr/lib/gcc/i686-pc-cygwin/4.9.2/libgfortran.a(fbuf.o)
 .text.unlikely.__gfortrani_fbuf_flush
                0x00441920        0x0 /usr/lib/gcc/i686-pc-cygwin/4.9.2/libgfortran.a(fbuf.o)
 .text.unlikely.__gfortrani_fbuf_reset
                0x00441920        0x0 /usr/lib/gcc/i686-pc-cygwin/4.9.2/libgfortran.a(fbuf.o)
 .text.unlikely.__gfortrani_fbuf_seek
                0x00441920        0x0 /usr/lib/gcc/i686-pc-cygwin/4.9.2/libgfortran.a(fbuf.o)
 .text.unlikely.__gfortrani_fbuf_read
                0x00441920        0x0 /usr/lib/gcc/i686-pc-cygwin/4.9.2/libgfortran.a(fbuf.o)
 .text.unlikely.__gfortrani_fbuf_getc_refill
                0x00441920        0x0 /usr/lib/gcc/i686-pc-cygwin/4.9.2/libgfortran.a(fbuf.o)
 .text.unlikely.__gfortran_getarg_i4
                0x00441920        0x0 /usr/lib/gcc/i686-pc-cygwin/4.9.2/libgfortran.a(args.o)
 .text.unlikely.__gfortran_getarg_i8
                0x00441920        0x0 /usr/lib/gcc/i686-pc-cygwin/4.9.2/libgfortran.a(args.o)
 .text.unlikely.__gfortran_iargc
                0x00441920        0x0 /usr/lib/gcc/i686-pc-cygwin/4.9.2/libgfortran.a(args.o)
 .text.unlikely.__gfortran_get_command_argument_i4
                0x00441920        0x0 /usr/lib/gcc/i686-pc-cygwin/4.9.2/libgfortran.a(args.o)
 .text.unlikely.__gfortran_get_command_argument_i8
                0x00441920        0x0 /usr/lib/gcc/i686-pc-cygwin/4.9.2/libgfortran.a(args.o)
 .text.unlikely.__gfortran_get_command_i4
                0x00441920        0x0 /usr/lib/gcc/i686-pc-cygwin/4.9.2/libgfortran.a(args.o)
 .text.unlikely.__gfortran_get_command_i8
                0x00441920        0x0 /usr/lib/gcc/i686-pc-cygwin/4.9.2/libgfortran.a(args.o)
 .text.unlikely.__gfortran_chdir_i4_sub
                0x00441920        0x0 /usr/lib/gcc/i686-pc-cygwin/4.9.2/libgfortran.a(chdir.o)
 .text.unlikely.__gfortran_chdir_i8_sub
                0x00441920        0x0 /usr/lib/gcc/i686-pc-cygwin/4.9.2/libgfortran.a(chdir.o)
 .text.unlikely.__gfortran_chdir_i4
                0x00441920        0x0 /usr/lib/gcc/i686-pc-cygwin/4.9.2/libgfortran.a(chdir.o)
 .text.unlikely.__gfortran_chdir_i8
                0x00441920        0x0 /usr/lib/gcc/i686-pc-cygwin/4.9.2/libgfortran.a(chdir.o)
 .text.unlikely.ltime_0
                0x00441920        0x0 /usr/lib/gcc/i686-pc-cygwin/4.9.2/libgfortran.a(date_and_time.o)
 .text.unlikely.gmtime_0
                0x00441920        0x0 /usr/lib/gcc/i686-pc-cygwin/4.9.2/libgfortran.a(date_and_time.o)
 .text.unlikely.itime0
                0x00441920        0x0 /usr/lib/gcc/i686-pc-cygwin/4.9.2/libgfortran.a(date_and_time.o)
 .text.unlikely.idate0
                0x00441920        0x0 /usr/lib/gcc/i686-pc-cygwin/4.9.2/libgfortran.a(date_and_time.o)
 .text.unlikely.__gfortran_date_and_time
                0x00441920        0x0 /usr/lib/gcc/i686-pc-cygwin/4.9.2/libgfortran.a(date_and_time.o)
 .text.unlikely.__gfortran_secnds
                0x00441920        0x0 /usr/lib/gcc/i686-pc-cygwin/4.9.2/libgfortran.a(date_and_time.o)
 .text.unlikely.__gfortran_itime_i4
                0x00441920        0x0 /usr/lib/gcc/i686-pc-cygwin/4.9.2/libgfortran.a(date_and_time.o)
 .text.unlikely.__gfortran_itime_i8
                0x00441920        0x0 /usr/lib/gcc/i686-pc-cygwin/4.9.2/libgfortran.a(date_and_time.o)
 .text.unlikely.__gfortran_idate_i4
                0x00441920        0x0 /usr/lib/gcc/i686-pc-cygwin/4.9.2/libgfortran.a(date_and_time.o)
 .text.unlikely.__gfortran_idate_i8
                0x00441920        0x0 /usr/lib/gcc/i686-pc-cygwin/4.9.2/libgfortran.a(date_and_time.o)
 .text.unlikely.__gfortran_gmtime_i4
                0x00441920        0x0 /usr/lib/gcc/i686-pc-cygwin/4.9.2/libgfortran.a(date_and_time.o)
 .text.unlikely.__gfortran_gmtime_i8
                0x00441920        0x0 /usr/lib/gcc/i686-pc-cygwin/4.9.2/libgfortran.a(date_and_time.o)
 .text.unlikely.__gfortran_ltime_i4
                0x00441920        0x0 /usr/lib/gcc/i686-pc-cygwin/4.9.2/libgfortran.a(date_and_time.o)
 .text.unlikely.__gfortran_ltime_i8
                0x00441920        0x0 /usr/lib/gcc/i686-pc-cygwin/4.9.2/libgfortran.a(date_and_time.o)
 .text.unlikely.__gfortrani_memcmp_char4
                0x00441920        0x0 /usr/lib/gcc/i686-pc-cygwin/4.9.2/libgfortran.a(string_intrinsics.o)
 .text.unlikely.__gfortran_compare_string
                0x00441920        0x0 /usr/lib/gcc/i686-pc-cygwin/4.9.2/libgfortran.a(string_intrinsics.o)
 .text.unlikely.__gfortran_concat_string
                0x00441920        0x0 /usr/lib/gcc/i686-pc-cygwin/4.9.2/libgfortran.a(string_intrinsics.o)
 .text.unlikely.__gfortran_string_len_trim
                0x00441920        0x0 /usr/lib/gcc/i686-pc-cygwin/4.9.2/libgfortran.a(string_intrinsics.o)
 .text.unlikely.__gfortran_string_trim
                0x00441920        0x0 /usr/lib/gcc/i686-pc-cygwin/4.9.2/libgfortran.a(string_intrinsics.o)
 .text.unlikely.__gfortran_string_index
                0x00441920        0x0 /usr/lib/gcc/i686-pc-cygwin/4.9.2/libgfortran.a(string_intrinsics.o)
 .text.unlikely.__gfortran_adjustl
                0x00441920        0x0 /usr/lib/gcc/i686-pc-cygwin/4.9.2/libgfortran.a(string_intrinsics.o)
 .text.unlikely.__gfortran_adjustr
                0x00441920        0x0 /usr/lib/gcc/i686-pc-cygwin/4.9.2/libgfortran.a(string_intrinsics.o)
 .text.unlikely.__gfortran_string_scan
                0x00441920        0x0 /usr/lib/gcc/i686-pc-cygwin/4.9.2/libgfortran.a(string_intrinsics.o)
 .text.unlikely.__gfortran_string_verify
                0x00441920        0x0 /usr/lib/gcc/i686-pc-cygwin/4.9.2/libgfortran.a(string_intrinsics.o)
 .text.unlikely.__gfortran_string_minmax
                0x00441920        0x0 /usr/lib/gcc/i686-pc-cygwin/4.9.2/libgfortran.a(string_intrinsics.o)
 .text.unlikely.__gfortran_compare_string_char4
                0x00441920        0x0 /usr/lib/gcc/i686-pc-cygwin/4.9.2/libgfortran.a(string_intrinsics.o)
 .text.unlikely.__gfortran_concat_string_char4
                0x00441920        0x0 /usr/lib/gcc/i686-pc-cygwin/4.9.2/libgfortran.a(string_intrinsics.o)
 .text.unlikely.__gfortran_string_trim_char4
                0x00441920        0x0 /usr/lib/gcc/i686-pc-cygwin/4.9.2/libgfortran.a(string_intrinsics.o)
 .text.unlikely.__gfortran_string_len_trim_char4
                0x00441920        0x0 /usr/lib/gcc/i686-pc-cygwin/4.9.2/libgfortran.a(string_intrinsics.o)
 .text.unlikely.__gfortran_string_index_char4
                0x00441920        0x0 /usr/lib/gcc/i686-pc-cygwin/4.9.2/libgfortran.a(string_intrinsics.o)
 .text.unlikely.__gfortran_adjustl_char4
                0x00441920        0x0 /usr/lib/gcc/i686-pc-cygwin/4.9.2/libgfortran.a(string_intrinsics.o)
 .text.unlikely.__gfortran_adjustr_char4
                0x00441920        0x0 /usr/lib/gcc/i686-pc-cygwin/4.9.2/libgfortran.a(string_intrinsics.o)
 .text.unlikely.__gfortran_string_scan_char4
                0x00441920        0x0 /usr/lib/gcc/i686-pc-cygwin/4.9.2/libgfortran.a(string_intrinsics.o)
 .text.unlikely.__gfortran_string_verify_char4
                0x00441920        0x0 /usr/lib/gcc/i686-pc-cygwin/4.9.2/libgfortran.a(string_intrinsics.o)
 .text.unlikely.__gfortran_string_minmax_char4
                0x00441920        0x0 /usr/lib/gcc/i686-pc-cygwin/4.9.2/libgfortran.a(string_intrinsics.o)
 .text.unlikely.kiss_random_kernel
                0x00441920        0x0 /usr/lib/gcc/i686-pc-cygwin/4.9.2/libgfortran.a(random.o)
 .text.unlikely.__gfortran_random_r4
                0x00441920        0x0 /usr/lib/gcc/i686-pc-cygwin/4.9.2/libgfortran.a(random.o)
 .text.unlikely.__gfortran_random_r8
                0x00441920        0x0 /usr/lib/gcc/i686-pc-cygwin/4.9.2/libgfortran.a(random.o)
 .text.unlikely.__gfortran_random_r10
                0x00441920        0x0 /usr/lib/gcc/i686-pc-cygwin/4.9.2/libgfortran.a(random.o)
 .text.unlikely.__gfortran_random_r16
                0x00441920        0x0 /usr/lib/gcc/i686-pc-cygwin/4.9.2/libgfortran.a(random.o)
 .text.unlikely.__gfortran_arandom_r4
                0x00441920        0x0 /usr/lib/gcc/i686-pc-cygwin/4.9.2/libgfortran.a(random.o)
 .text.unlikely.__gfortran_arandom_r8
                0x00441920        0x0 /usr/lib/gcc/i686-pc-cygwin/4.9.2/libgfortran.a(random.o)
 .text.unlikely.__gfortran_arandom_r10
                0x00441920        0x0 /usr/lib/gcc/i686-pc-cygwin/4.9.2/libgfortran.a(random.o)
 .text.unlikely.__gfortran_arandom_r16
                0x00441920        0x0 /usr/lib/gcc/i686-pc-cygwin/4.9.2/libgfortran.a(random.o)
 .text.unlikely.__gfortran_random_seed_i4
                0x00441920        0x0 /usr/lib/gcc/i686-pc-cygwin/4.9.2/libgfortran.a(random.o)
 .text.unlikely.__gfortran_random_seed_i8
                0x00441920        0x0 /usr/lib/gcc/i686-pc-cygwin/4.9.2/libgfortran.a(random.o)
 .text.unlikely.fd_gets
                0x00441920        0x0 /usr/lib/gcc/i686-pc-cygwin/4.9.2/libgfortran.a(backtrace.o)
 .text.unlikely.trace_function
                0x00441920        0x0 /usr/lib/gcc/i686-pc-cygwin/4.9.2/libgfortran.a(backtrace.o)
 .text.unlikely.__gfortran_backtrace
                0x00441920        0x0 /usr/lib/gcc/i686-pc-cygwin/4.9.2/libgfortran.a(backtrace.o)
 .text.unlikely.has_sse
                0x00441920        0x0 /usr/lib/gcc/i686-pc-cygwin/4.9.2/libgfortran.a(fpu.o)
 .text.unlikely.__gfortrani_set_fpu
                0x00441920        0x0 /usr/lib/gcc/i686-pc-cygwin/4.9.2/libgfortran.a(fpu.o)
 .text.unlikely.__gfortrani_get_fpu_except_flags
                0x00441920        0x0 /usr/lib/gcc/i686-pc-cygwin/4.9.2/libgfortran.a(fpu.o)
 .text.unlikely.__gfortrani_set_fpu_rounding_mode
                0x00441920        0x0 /usr/lib/gcc/i686-pc-cygwin/4.9.2/libgfortran.a(fpu.o)
 .text.unlikely.__gfortrani_get_fpu_rounding_mode
                0x00441920        0x0 /usr/lib/gcc/i686-pc-cygwin/4.9.2/libgfortran.a(fpu.o)
 .text.unlikely.__gfortran_set_fpe
                0x00441920        0x0 /usr/lib/gcc/i686-pc-cygwin/4.9.2/libgfortran.a(fpu.o)
 .text.unlikely.reset_node
                0x00441920        0x0 /usr/lib/gcc/i686-pc-cygwin/4.9.2/libgfortran.a(format.o)
 .text.unlikely.get_fnode
                0x00441920        0x0 /usr/lib/gcc/i686-pc-cygwin/4.9.2/libgfortran.a(format.o)
 .text.unlikely.next_char
                0x00441920        0x0 /usr/lib/gcc/i686-pc-cygwin/4.9.2/libgfortran.a(format.o)
 .text.unlikely.next_format0
                0x00441920        0x0 /usr/lib/gcc/i686-pc-cygwin/4.9.2/libgfortran.a(format.o)
 .text.unlikely.format_lex.part.3
                0x00441920        0x0 /usr/lib/gcc/i686-pc-cygwin/4.9.2/libgfortran.a(format.o)
 .text.unlikely.parse_format_list
                0x00441920        0x0 /usr/lib/gcc/i686-pc-cygwin/4.9.2/libgfortran.a(format.o)
 .text.unlikely.__gfortrani_free_format_data
                0x00441920        0x0 /usr/lib/gcc/i686-pc-cygwin/4.9.2/libgfortran.a(format.o)
 .text.unlikely.__gfortrani_free_format_hash_table
                0x00441920        0x0 /usr/lib/gcc/i686-pc-cygwin/4.9.2/libgfortran.a(format.o)
 .text.unlikely.__gfortrani_format_error
                0x00441920        0x0 /usr/lib/gcc/i686-pc-cygwin/4.9.2/libgfortran.a(format.o)
 .text.unlikely.__gfortrani_parse_format
                0x00441920        0x0 /usr/lib/gcc/i686-pc-cygwin/4.9.2/libgfortran.a(format.o)
 .text.unlikely.__gfortrani_next_format
                0x00441920        0x0 /usr/lib/gcc/i686-pc-cygwin/4.9.2/libgfortran.a(format.o)
 .text.unlikely.__gfortrani_unget_format
                0x00441920        0x0 /usr/lib/gcc/i686-pc-cygwin/4.9.2/libgfortran.a(format.o)
 .text.unlikely.next_char
                0x00441920        0x0 /usr/lib/gcc/i686-pc-cygwin/4.9.2/libgfortran.a(list_read.o)
 .text.unlikely.eat_line
                0x00441920        0x0 /usr/lib/gcc/i686-pc-cygwin/4.9.2/libgfortran.a(list_read.o)
 .text.unlikely.eat_spaces
                0x00441920        0x0 /usr/lib/gcc/i686-pc-cygwin/4.9.2/libgfortran.a(list_read.o)
 .text.unlikely.eat_separator
                0x00441920        0x0 /usr/lib/gcc/i686-pc-cygwin/4.9.2/libgfortran.a(list_read.o)
 .text.unlikely.finish_separator
                0x00441920        0x0 /usr/lib/gcc/i686-pc-cygwin/4.9.2/libgfortran.a(list_read.o)
 .text.unlikely.l_push_char
                0x00441920        0x0 /usr/lib/gcc/i686-pc-cygwin/4.9.2/libgfortran.a(list_read.o)
 .text.unlikely.push_char
                0x00441920        0x0 /usr/lib/gcc/i686-pc-cygwin/4.9.2/libgfortran.a(list_read.o)
 .text.unlikely.nml_match_name
                0x00441920        0x0 /usr/lib/gcc/i686-pc-cygwin/4.9.2/libgfortran.a(list_read.o)
 .text.unlikely.convert_integer
                0x00441920        0x0 /usr/lib/gcc/i686-pc-cygwin/4.9.2/libgfortran.a(list_read.o)
 .text.unlikely.read_integer
                0x00441920        0x0 /usr/lib/gcc/i686-pc-cygwin/4.9.2/libgfortran.a(list_read.o)
 .text.unlikely.parse_repeat
                0x00441920        0x0 /usr/lib/gcc/i686-pc-cygwin/4.9.2/libgfortran.a(list_read.o)
 .text.unlikely.read_logical
                0x00441920        0x0 /usr/lib/gcc/i686-pc-cygwin/4.9.2/libgfortran.a(list_read.o)
 .text.unlikely.read_real
                0x00441920        0x0 /usr/lib/gcc/i686-pc-cygwin/4.9.2/libgfortran.a(list_read.o)
 .text.unlikely.parse_real
                0x00441920        0x0 /usr/lib/gcc/i686-pc-cygwin/4.9.2/libgfortran.a(list_read.o)
 .text.unlikely.read_complex
                0x00441920        0x0 /usr/lib/gcc/i686-pc-cygwin/4.9.2/libgfortran.a(list_read.o)
 .text.unlikely.nml_query
                0x00441920        0x0 /usr/lib/gcc/i686-pc-cygwin/4.9.2/libgfortran.a(list_read.o)
 .text.unlikely.read_character.isra.3
                0x00441920        0x0 /usr/lib/gcc/i686-pc-cygwin/4.9.2/libgfortran.a(list_read.o)
 .text.unlikely.nml_read_obj.constprop.7
                0x00441920        0x0 /usr/lib/gcc/i686-pc-cygwin/4.9.2/libgfortran.a(list_read.o)
 .text.unlikely.nml_parse_qualifier.constprop.8
                0x00441920        0x0 /usr/lib/gcc/i686-pc-cygwin/4.9.2/libgfortran.a(list_read.o)
 .text.unlikely.__gfortrani_list_formatted_read
                0x00441920        0x0 /usr/lib/gcc/i686-pc-cygwin/4.9.2/libgfortran.a(list_read.o)
 .text.unlikely.__gfortrani_finish_list_read
                0x00441920        0x0 /usr/lib/gcc/i686-pc-cygwin/4.9.2/libgfortran.a(list_read.o)
 .text.unlikely.__gfortrani_namelist_read
                0x00441920        0x0 /usr/lib/gcc/i686-pc-cygwin/4.9.2/libgfortran.a(list_read.o)
 .text.unlikely.read_utf8
                0x00441920        0x0 /usr/lib/gcc/i686-pc-cygwin/4.9.2/libgfortran.a(read.o)
 .text.unlikely.next_char.isra.0
                0x00441920        0x0 /usr/lib/gcc/i686-pc-cygwin/4.9.2/libgfortran.a(read.o)
 .text.unlikely.__gfortrani_set_integer
                0x00441920        0x0 /usr/lib/gcc/i686-pc-cygwin/4.9.2/libgfortran.a(read.o)
 .text.unlikely.__gfortrani_si_max
                0x00441920        0x0 /usr/lib/gcc/i686-pc-cygwin/4.9.2/libgfortran.a(read.o)
 .text.unlikely.__gfortrani_convert_real
                0x00441920        0x0 /usr/lib/gcc/i686-pc-cygwin/4.9.2/libgfortran.a(read.o)
 .text.unlikely.__gfortrani_convert_infnan
                0x00441920        0x0 /usr/lib/gcc/i686-pc-cygwin/4.9.2/libgfortran.a(read.o)
 .text.unlikely.__gfortrani_read_l
                0x00441920        0x0 /usr/lib/gcc/i686-pc-cygwin/4.9.2/libgfortran.a(read.o)
 .text.unlikely.__gfortrani_read_a
                0x00441920        0x0 /usr/lib/gcc/i686-pc-cygwin/4.9.2/libgfortran.a(read.o)
 .text.unlikely.read_a_char4
                0x00441920        0x0 /usr/lib/gcc/i686-pc-cygwin/4.9.2/libgfortran.a(read.o)
 .text.unlikely.__gfortrani_read_decimal
                0x00441920        0x0 /usr/lib/gcc/i686-pc-cygwin/4.9.2/libgfortran.a(read.o)
 .text.unlikely.__gfortrani_read_radix
                0x00441920        0x0 /usr/lib/gcc/i686-pc-cygwin/4.9.2/libgfortran.a(read.o)
 .text.unlikely.__gfortrani_read_f
                0x00441920        0x0 /usr/lib/gcc/i686-pc-cygwin/4.9.2/libgfortran.a(read.o)
 .text.unlikely.__gfortrani_read_x
                0x00441920        0x0 /usr/lib/gcc/i686-pc-cygwin/4.9.2/libgfortran.a(read.o)
 .text.unlikely.__gfortrani_size_from_real_kind
                0x00441920        0x0 /usr/lib/gcc/i686-pc-cygwin/4.9.2/libgfortran.a(size_from_kind.o)
 .text.unlikely.__gfortrani_size_from_complex_kind
                0x00441920        0x0 /usr/lib/gcc/i686-pc-cygwin/4.9.2/libgfortran.a(size_from_kind.o)
 .text.unlikely
                0x00441920        0x0 /usr/lib/gcc/i686-pc-cygwin/4.9.2/libgcc.a(_divdi3.o)
 .text.unlikely
                0x00441920        0x0 /usr/lib/gcc/i686-pc-cygwin/4.9.2/libgcc.a(_udivdi3.o)
 .text.unlikely
                0x00441920        0x0 /usr/lib/gcc/i686-pc-cygwin/4.9.2/libgcc.a(_umoddi3.o)
 .text.unlikely
                0x00441920        0x0 /usr/lib/gcc/i686-pc-cygwin/4.9.2/libgcc.a(addtf3.o)
 .text.unlikely
                0x00441920        0x0 /usr/lib/gcc/i686-pc-cygwin/4.9.2/libgcc.a(divtf3.o)
 .text.unlikely
                0x00441920        0x0 /usr/lib/gcc/i686-pc-cygwin/4.9.2/libgcc.a(eqtf2.o)
 .text.unlikely
                0x00441920        0x0 /usr/lib/gcc/i686-pc-cygwin/4.9.2/libgcc.a(getf2.o)
 .text.unlikely
                0x00441920        0x0 /usr/lib/gcc/i686-pc-cygwin/4.9.2/libgcc.a(letf2.o)
 .text.unlikely
                0x00441920        0x0 /usr/lib/gcc/i686-pc-cygwin/4.9.2/libgcc.a(multf3.o)
 .text.unlikely
                0x00441920        0x0 /usr/lib/gcc/i686-pc-cygwin/4.9.2/libgcc.a(subtf3.o)
 .text.unlikely
                0x00441920        0x0 /usr/lib/gcc/i686-pc-cygwin/4.9.2/libgcc.a(floatunditf.o)
 .text.unlikely
                0x00441920        0x0 /usr/lib/gcc/i686-pc-cygwin/4.9.2/libgcc.a(sfp-exceptions.o)
 .text.unlikely
                0x00441920        0x0 /usr/lib/gcc/i686-pc-cygwin/4.9.2/libgcc_eh.a(unwind-dw2.o)
 .text.unlikely
                0x00441920        0x0 /usr/lib/gcc/i686-pc-cygwin/4.9.2/libgcc_eh.a(unwind-dw2-fde.o)
 .text.unlikely
                0x00441920        0x0 /usr/lib/gcc/i686-pc-cygwin/4.9.2/libquadmath.a(isnanq.o)
 .text.unlikely
                0x00441920        0x0 /usr/lib/gcc/i686-pc-cygwin/4.9.2/libquadmath.a(signbitq.o)
 .text.unlikely
                0x00441920        0x0 /usr/lib/gcc/i686-pc-cygwin/4.9.2/libquadmath.a(finiteq.o)
 .text.unlikely
                0x00441920        0x0 /usr/lib/gcc/i686-pc-cygwin/4.9.2/crtend.o
 .text.startup  0x00441920       0x10 /usr/lib/gcc/i686-pc-cygwin/4.9.2/crtend.o
 *(.gnu.linkonce.t.*)
 *(.glue_7t)
 *(.glue_7)
                0x00441930                ___CTOR_LIST__ = .
                0x00441930                __CTOR_LIST__ = .
                0x00441930        0x4 LONG 0xffffffff
 *(.ctors)
 .ctors         0x00441934        0x4 /usr/lib/gcc/i686-pc-cygwin/4.9.2/libgfortran.a(main.o)
 *(.ctor)
 *(SORT(.ctors.*))
 .ctors.65535   0x00441938        0x4 /usr/lib/gcc/i686-pc-cygwin/4.9.2/crtend.o
                0x0044193c        0x4 LONG 0x0
                0x00441940                ___DTOR_LIST__ = .
                0x00441940                __DTOR_LIST__ = .
                0x00441940        0x4 LONG 0xffffffff
 *(.dtors)
 .dtors         0x00441944        0x4 /usr/lib/gcc/i686-pc-cygwin/4.9.2/libgfortran.a(main.o)
 *(.dtor)
 *(SORT(.dtors.*))
                0x00441948        0x4 LONG 0x0
 *(.fini)
 *(.gcc_exc)
                0x0044194c                PROVIDE (etext, .)
                0x0044194c                PROVIDE (_etext, .)
 *(.gcc_except_table)

.data           0x00442000    0x1a800
                0x00442000                __data_start__ = .
 *(.data)
 .data          0x00442000        0x0 /usr/lib/gcc/i686-pc-cygwin/4.9.2/../../../crt0.o
 .data          0x00442000        0x8 /usr/lib/gcc/i686-pc-cygwin/4.9.2/crtbegin.o
                0x00442004                __dso_handle
 .data          0x00442008        0x0 obj/imploc.o
 *fill*         0x00442008       0x38 
 .data          0x00442040       0x80 obj/io_list.o
                0x00442040                __io_list_MOD_io_list_rcs_id
 .data          0x004420c0    0x19e80 obj/mensamod.o
                0x004420c0                __mensamod_MOD_messages
 .data          0x0045bf40       0x80 obj/zcomm.o
                0x0045bf40                __zcomm_MOD_zcomm_rcs_id
 .data          0x0045bfc0       0x80 obj/getoptm.o
 .data          0x0045c040       0x80 obj/mlogit.o
                0x0045c040                __mlogit_MOD_mlogit_rcs_id
 .data          0x0045c0c0       0x80 obj/mpowit.o
                0x0045c0c0                __mpowit_MOD_mpowit_rcs_id
 .data          0x0045c140       0x80 obj/distribm.o
                0x0045c140                __distribm_MOD_distribm_rcs_id
 .data          0x0045c1c0       0xc0 obj/lcomm.o
                0x0045c200                __lcomm_MOD_lcomm_rcs_id
 .data          0x0045c280       0x80 obj/control.o
                0x0045c280                __control_MOD_control_rcs_id
 .data          0x0045c300        0x0 obj/gener.o
 .data          0x0045c300       0x80 obj/param.o
                0x0045c300                __param_MOD_param_rcs_id
 .data          0x0045c380       0x80 obj/lparc.o
                0x0045c380                __lparc_MOD_lparc_rcs_id
 .data          0x0045c400        0x8 obj/optionsm.o
                0x0045c400                __optionsm_MOD_waiting_slope_factor
                0x0045c404                __optionsm_MOD_c_dirsep
 .data          0x0045c408        0x4 obj/debugm.o
                0x0045c408                __debugm_MOD_debugging
 .data          0x0045c40c        0x0 /usr/lib/gcc/i686-pc-cygwin/4.9.2/libgfortran.a(compile_options.o)
 .data          0x0045c40c        0x0 /usr/lib/gcc/i686-pc-cygwin/4.9.2/libgfortran.a(environ.o)
 .data          0x0045c40c        0x0 /usr/lib/gcc/i686-pc-cygwin/4.9.2/libgfortran.a(error.o)
 .data          0x0045c40c        0x0 /usr/lib/gcc/i686-pc-cygwin/4.9.2/libgfortran.a(main.o)
 .data          0x0045c40c        0x0 /usr/lib/gcc/i686-pc-cygwin/4.9.2/libgfortran.a(memory.o)
 .data          0x0045c40c        0x0 /usr/lib/gcc/i686-pc-cygwin/4.9.2/libgfortran.a(stop.o)
 .data          0x0045c40c        0x0 /usr/lib/gcc/i686-pc-cygwin/4.9.2/libgfortran.a(string.o)
 .data          0x0045c40c        0x0 /usr/lib/gcc/i686-pc-cygwin/4.9.2/libgfortran.a(close.o)
 .data          0x0045c40c        0x0 /usr/lib/gcc/i686-pc-cygwin/4.9.2/libgfortran.a(file_pos.o)
 .data          0x0045c40c        0x0 /usr/lib/gcc/i686-pc-cygwin/4.9.2/libgfortran.a(inquire.o)
 .data          0x0045c40c        0x0 /usr/lib/gcc/i686-pc-cygwin/4.9.2/libgfortran.a(lock.o)
 .data          0x0045c40c        0x0 /usr/lib/gcc/i686-pc-cygwin/4.9.2/libgfortran.a(open.o)
 .data          0x0045c40c        0x0 /usr/lib/gcc/i686-pc-cygwin/4.9.2/libgfortran.a(transfer.o)
 .data          0x0045c40c        0x0 /usr/lib/gcc/i686-pc-cygwin/4.9.2/libgfortran.a(unit.o)
 .data          0x0045c40c        0x0 /usr/lib/gcc/i686-pc-cygwin/4.9.2/libgfortran.a(unix.o)
 .data          0x0045c40c        0x0 /usr/lib/gcc/i686-pc-cygwin/4.9.2/libgfortran.a(write.o)
 .data          0x0045c40c        0x0 /usr/lib/gcc/i686-pc-cygwin/4.9.2/libgfortran.a(fbuf.o)
 .data          0x0045c40c        0x0 /usr/lib/gcc/i686-pc-cygwin/4.9.2/libgfortran.a(args.o)
 .data          0x0045c40c        0x0 /usr/lib/gcc/i686-pc-cygwin/4.9.2/libgfortran.a(chdir.o)
 .data          0x0045c40c        0x0 /usr/lib/gcc/i686-pc-cygwin/4.9.2/libgfortran.a(date_and_time.o)
 .data          0x0045c40c        0x0 /usr/lib/gcc/i686-pc-cygwin/4.9.2/libgfortran.a(string_intrinsics.o)
 .data          0x0045c40c        0x0 /usr/lib/gcc/i686-pc-cygwin/4.9.2/libgfortran.a(random.o)
 .data          0x0045c40c        0x0 /usr/lib/gcc/i686-pc-cygwin/4.9.2/libgfortran.a(backtrace.o)
 .data          0x0045c40c        0x0 /usr/lib/gcc/i686-pc-cygwin/4.9.2/libgfortran.a(fpu.o)
 .data          0x0045c40c        0x0 /usr/lib/gcc/i686-pc-cygwin/4.9.2/libgfortran.a(format.o)
 .data          0x0045c40c        0x0 /usr/lib/gcc/i686-pc-cygwin/4.9.2/libgfortran.a(list_read.o)
 .data          0x0045c40c        0x0 /usr/lib/gcc/i686-pc-cygwin/4.9.2/libgfortran.a(read.o)
 .data          0x0045c40c        0x0 /usr/lib/gcc/i686-pc-cygwin/4.9.2/libgfortran.a(size_from_kind.o)
 .data          0x0045c40c        0x0 /usr/lib/gcc/i686-pc-cygwin/4.9.2/libgcc.a(_chkstk_ms.o)
 .data          0x0045c40c        0x0 /usr/lib/gcc/i686-pc-cygwin/4.9.2/libgcc.a(_divdi3.o)
 .data          0x0045c40c        0x0 /usr/lib/gcc/i686-pc-cygwin/4.9.2/libgcc.a(_udivdi3.o)
 .data          0x0045c40c        0x0 /usr/lib/gcc/i686-pc-cygwin/4.9.2/libgcc.a(_umoddi3.o)
 .data          0x0045c40c        0x0 /usr/lib/gcc/i686-pc-cygwin/4.9.2/libgcc.a(addtf3.o)
 .data          0x0045c40c        0x0 /usr/lib/gcc/i686-pc-cygwin/4.9.2/libgcc.a(divtf3.o)
 .data          0x0045c40c        0x0 /usr/lib/gcc/i686-pc-cygwin/4.9.2/libgcc.a(eqtf2.o)
 .data          0x0045c40c        0x0 /usr/lib/gcc/i686-pc-cygwin/4.9.2/libgcc.a(getf2.o)
 .data          0x0045c40c        0x0 /usr/lib/gcc/i686-pc-cygwin/4.9.2/libgcc.a(letf2.o)
 .data          0x0045c40c        0x0 /usr/lib/gcc/i686-pc-cygwin/4.9.2/libgcc.a(multf3.o)
 .data          0x0045c40c        0x0 /usr/lib/gcc/i686-pc-cygwin/4.9.2/libgcc.a(subtf3.o)
 .data          0x0045c40c        0x0 /usr/lib/gcc/i686-pc-cygwin/4.9.2/libgcc.a(floatunditf.o)
 .data          0x0045c40c        0x0 /usr/lib/gcc/i686-pc-cygwin/4.9.2/libgcc.a(sfp-exceptions.o)
 .data          0x0045c40c        0x8 /usr/lib/gcc/i686-pc-cygwin/4.9.2/libgcc_eh.a(unwind-dw2.o)
 .data          0x0045c414        0x4 /usr/lib/gcc/i686-pc-cygwin/4.9.2/libgcc_eh.a(unwind-dw2-fde.o)
 .data          0x0045c418        0x0 /usr/lib/gcc/i686-pc-cygwin/4.9.2/libquadmath.a(isnanq.o)
 .data          0x0045c418        0x0 /usr/lib/gcc/i686-pc-cygwin/4.9.2/libquadmath.a(signbitq.o)
 .data          0x0045c418        0x0 /usr/lib/gcc/i686-pc-cygwin/4.9.2/libquadmath.a(finiteq.o)
 .data          0x0045c418        0x0 /usr/lib/gcc/i686-pc-cygwin/4.9.2/../../../libcygwin.a(cygwin_crt0.o)
 .data          0x0045c418        0x0 /usr/lib/gcc/i686-pc-cygwin/4.9.2/../../../libcygwin.a(premain0.o)
 .data          0x0045c418        0x0 /usr/lib/gcc/i686-pc-cygwin/4.9.2/../../../libcygwin.a(premain1.o)
 .data          0x0045c418        0x0 /usr/lib/gcc/i686-pc-cygwin/4.9.2/../../../libcygwin.a(premain2.o)
 .data          0x0045c418        0x0 /usr/lib/gcc/i686-pc-cygwin/4.9.2/../../../libcygwin.a(premain3.o)
 *fill*         0x0045c418        0x8 
 .data          0x0045c420       0x20 /usr/lib/gcc/i686-pc-cygwin/4.9.2/../../../libcygwin.a(_cygwin_crt0_common.o)
                0x0045c420                __cygwin_cxx_malloc
 .data          0x0045c440        0x0 /usr/lib/gcc/i686-pc-cygwin/4.9.2/../../../libcygwin.a(dll_entry.o)
 .data          0x0045c440        0x0 /usr/lib/gcc/i686-pc-cygwin/4.9.2/../../../libcygwin.a(dll_main.o)
 .data          0x0045c440        0x0 /usr/lib/gcc/i686-pc-cygwin/4.9.2/../../../libcygwin.a(pseudo-reloc-dummy.o)
 .data          0x0045c440        0x0 /usr/lib/gcc/i686-pc-cygwin/4.9.2/../../../libcygwin.a(cygwin_attach_dll.o)
 .data          0x0045c440        0x0 /usr/lib/w32api/libkernel32.a(dwfms00581.o)
 .data          0x0045c440        0x0 /usr/lib/w32api/libkernel32.a(dwfms00533.o)
 .data          0x0045c440        0x0 /usr/lib/w32api/libkernel32.a(dwfmh.o)
 .data          0x0045c440        0x0 /usr/lib/w32api/libkernel32.a(dwfmt.o)
 .data          0x0045c440        0x0 /usr/lib/gcc/i686-pc-cygwin/4.9.2/libgcc.a(_ctors.o)
 .data          0x0045c440        0x0 /usr/lib/gcc/i686-pc-cygwin/4.9.2/crtend.o
 *(.data2)
 *(SORT(.data$*))
 .data$__gfortrani_big_endian
                0x0045c440        0x4 /usr/lib/gcc/i686-pc-cygwin/4.9.2/libgfortran.a(main.o)
                0x0045c440                _gfortrani_big_endian
 .data$__gfortrani_unit_lock
                0x0045c444        0x4 /usr/lib/gcc/i686-pc-cygwin/4.9.2/libgfortran.a(unit.o)
                0x0045c444                _gfortrani_unit_lock
 .data$argc_save
                0x0045c448        0x4 /usr/lib/gcc/i686-pc-cygwin/4.9.2/libgfortran.a(main.o)
 .data$argv_save
                0x0045c44c        0x4 /usr/lib/gcc/i686-pc-cygwin/4.9.2/libgfortran.a(main.o)
 .data$def      0x0045c450        0x4 /usr/lib/gcc/i686-pc-cygwin/4.9.2/libgfortran.a(environ.o)
 .data$do_count
                0x0045c454        0x4 /usr/lib/gcc/i686-pc-cygwin/4.9.2/libgfortran.a(environ.o)
 .data$elist    0x0045c458        0x4 /usr/lib/gcc/i686-pc-cygwin/4.9.2/libgfortran.a(environ.o)
 .data$empty_string.7200
                0x0045c45c        0x0 /usr/lib/gcc/i686-pc-cygwin/4.9.2/libgfortran.a(transfer.o)
 .data$empty_string.7212
                0x0045c45c        0x0 /usr/lib/gcc/i686-pc-cygwin/4.9.2/libgfortran.a(transfer.o)
 .data$empty_string.7232
                0x0045c45c        0x0 /usr/lib/gcc/i686-pc-cygwin/4.9.2/libgfortran.a(transfer.o)
 .data$empty_string.7556
                0x0045c45c        0x0 /usr/lib/gcc/i686-pc-cygwin/4.9.2/libgfortran.a(transfer.o)
 .data$empty_string.7568
                0x0045c45c        0x0 /usr/lib/gcc/i686-pc-cygwin/4.9.2/libgfortran.a(transfer.o)
 .data$endian   0x0045c45c        0x4 /usr/lib/gcc/i686-pc-cygwin/4.9.2/libgfortran.a(environ.o)
 .data$exe_path
                0x0045c460        0x4 /usr/lib/gcc/i686-pc-cygwin/4.9.2/libgfortran.a(main.o)
 .data$fatal_error_in_progress
                0x0045c464        0x4 /usr/lib/gcc/i686-pc-cygwin/4.9.2/libgfortran.a(compile_options.o)
                0x0045c464                fatal_error_in_progress
 *fill*         0x0045c468       0x18 
 .data$kiss_seed
                0x0045c480       0x40 /usr/lib/gcc/i686-pc-cygwin/4.9.2/libgfortran.a(random.o)
 .data$lastpos  0x0045c4c0        0x4 /usr/lib/gcc/i686-pc-cygwin/4.9.2/libgfortran.a(environ.o)
 .data$magic.5844
                0x0045c4c4        0x4 /usr/lib/gcc/i686-pc-cygwin/4.9.2/libgfortran.a(error.o)
 .data$n_elist  0x0045c4c8        0x4 /usr/lib/gcc/i686-pc-cygwin/4.9.2/libgfortran.a(environ.o)
 .data$next_available_newunit
                0x0045c4cc        0x4 /usr/lib/gcc/i686-pc-cygwin/4.9.2/libgfortran.a(unit.o)
 .data$p        0x0045c4d0        0x4 /usr/lib/gcc/i686-pc-cygwin/4.9.2/libgfortran.a(environ.o)
 .data$please_free_exe_path_when_done
                0x0045c4d4        0x4 /usr/lib/gcc/i686-pc-cygwin/4.9.2/libgfortran.a(main.o)
 .data$random_lock
                0x0045c4d8        0x4 /usr/lib/gcc/i686-pc-cygwin/4.9.2/libgfortran.a(random.o)
 .data$stderr_name
                0x0045c4dc        0x8 /usr/lib/gcc/i686-pc-cygwin/4.9.2/libgfortran.a(unit.o)
 .data$stdin_name
                0x0045c4e4        0x8 /usr/lib/gcc/i686-pc-cygwin/4.9.2/libgfortran.a(unit.o)
 .data$stdout_name
                0x0045c4ec        0x8 /usr/lib/gcc/i686-pc-cygwin/4.9.2/libgfortran.a(unit.o)
 .data$unit_cache
                0x0045c4f4        0xc /usr/lib/gcc/i686-pc-cygwin/4.9.2/libgfortran.a(unit.o)
 .data$unit_count
                0x0045c500        0x4 /usr/lib/gcc/i686-pc-cygwin/4.9.2/libgfortran.a(environ.o)
 .data$unit_num
                0x0045c504        0x4 /usr/lib/gcc/i686-pc-cygwin/4.9.2/libgfortran.a(environ.o)
 *fill*         0x0045c508       0x38 
 .data$variable_table
                0x0045c540      0x180 /usr/lib/gcc/i686-pc-cygwin/4.9.2/libgfortran.a(environ.o)
 .data$x0.7084  0x0045c6c0        0x4 /usr/lib/gcc/i686-pc-cygwin/4.9.2/libgfortran.a(unit.o)
 .data$zero_length_string
                0x0045c6c4        0x4 /usr/lib/gcc/i686-pc-cygwin/4.9.2/libgfortran.a(string_intrinsics.o)
 .data$zero_length_string_char4
                0x0045c6c8        0x4 /usr/lib/gcc/i686-pc-cygwin/4.9.2/libgfortran.a(string_intrinsics.o)
 *(.jcr)
 .jcr           0x0045c6cc        0x0 /usr/lib/gcc/i686-pc-cygwin/4.9.2/crtbegin.o
 .jcr           0x0045c6cc        0x4 /usr/lib/gcc/i686-pc-cygwin/4.9.2/crtend.o
                0x0045c6d0                __data_end__ = .
 *(.data_cygwin_nocopy)

.rdata          0x0045d000     0x8000
 *(.rdata)
 .rdata         0x0045d000       0x60 /usr/lib/gcc/i686-pc-cygwin/4.9.2/crtbegin.o
 .rdata         0x0045d060      0x900 obj/imploc.o
 .rdata         0x0045d960       0x2c obj/io_list.o
 .rdata         0x0045d98c       0x40 obj/mensamod.o
 *fill*         0x0045d9cc        0x4 
 .rdata         0x0045d9d0       0x90 obj/zcomm.o
 .rdata         0x0045da60      0x4e4 obj/getoptm.o
 *fill*         0x0045df44        0xc 
 .rdata         0x0045df50       0xf0 obj/mlogit.o
 .rdata         0x0045e040       0x40 obj/mpowit.o
 .rdata         0x0045e080       0x44 obj/distribm.o
 *fill*         0x0045e0c4        0xc 
 .rdata         0x0045e0d0      0x430 obj/lcomm.o
 .rdata         0x0045e500      0x12c obj/control.o
 *fill*         0x0045e62c        0x4 
 .rdata         0x0045e630      0x388 obj/gener.o
 .rdata         0x0045e9b8       0x38 obj/optionsm.o
 .rdata         0x0045e9f0       0x44 obj/debugm.o
 .rdata         0x0045ea34      0x228 /usr/lib/gcc/i686-pc-cygwin/4.9.2/libgfortran.a(compile_options.o)
 .rdata         0x0045ec5c      0x818 /usr/lib/gcc/i686-pc-cygwin/4.9.2/libgfortran.a(environ.o)
 .rdata         0x0045f474      0x3cc /usr/lib/gcc/i686-pc-cygwin/4.9.2/libgfortran.a(error.o)
 .rdata         0x0045f840       0x20 /usr/lib/gcc/i686-pc-cygwin/4.9.2/libgfortran.a(main.o)
 .rdata         0x0045f860       0x90 /usr/lib/gcc/i686-pc-cygwin/4.9.2/libgfortran.a(memory.o)
 .rdata         0x0045f8f0       0xe0 /usr/lib/gcc/i686-pc-cygwin/4.9.2/libgfortran.a(stop.o)
 .rdata         0x0045f9d0       0x58 /usr/lib/gcc/i686-pc-cygwin/4.9.2/libgfortran.a(close.o)
 .rdata         0x0045fa28      0x180 /usr/lib/gcc/i686-pc-cygwin/4.9.2/libgfortran.a(file_pos.o)
 .rdata         0x0045fba8      0x294 /usr/lib/gcc/i686-pc-cygwin/4.9.2/libgfortran.a(inquire.o)
 .rdata         0x0045fe3c      0x90c /usr/lib/gcc/i686-pc-cygwin/4.9.2/libgfortran.a(open.o)
 .rdata         0x00460748      0x9bc /usr/lib/gcc/i686-pc-cygwin/4.9.2/libgfortran.a(transfer.o)
 .rdata         0x00461104       0x5c /usr/lib/gcc/i686-pc-cygwin/4.9.2/libgfortran.a(unit.o)
 .rdata         0x00461160       0x94 /usr/lib/gcc/i686-pc-cygwin/4.9.2/libgfortran.a(unix.o)
 *fill*         0x004611f4        0xc 
 .rdata         0x00461200      0x230 /usr/lib/gcc/i686-pc-cygwin/4.9.2/libgfortran.a(write.o)
 .rdata         0x00461430       0x2c /usr/lib/gcc/i686-pc-cygwin/4.9.2/libgfortran.a(args.o)
 *fill*         0x0046145c        0x4 
 .rdata         0x00461460      0x110 /usr/lib/gcc/i686-pc-cygwin/4.9.2/libgfortran.a(date_and_time.o)
 .rdata         0x00461570       0x70 /usr/lib/gcc/i686-pc-cygwin/4.9.2/libgfortran.a(string_intrinsics.o)
 .rdata         0x004615e0       0xbc /usr/lib/gcc/i686-pc-cygwin/4.9.2/libgfortran.a(random.o)
 .rdata         0x0046169c       0x9c /usr/lib/gcc/i686-pc-cygwin/4.9.2/libgfortran.a(backtrace.o)
 .rdata         0x00461738      0x510 /usr/lib/gcc/i686-pc-cygwin/4.9.2/libgfortran.a(format.o)
 .rdata         0x00461c48     0x1770 /usr/lib/gcc/i686-pc-cygwin/4.9.2/libgfortran.a(list_read.o)
 .rdata         0x004633b8      0x410 /usr/lib/gcc/i686-pc-cygwin/4.9.2/libgfortran.a(read.o)
 .rdata         0x004637c8       0x40 /usr/lib/gcc/i686-pc-cygwin/4.9.2/libgcc.a(divtf3.o)
 .rdata         0x00463808       0x40 /usr/lib/gcc/i686-pc-cygwin/4.9.2/libgcc.a(multf3.o)
 .rdata         0x00463848      0x5b8 /usr/lib/gcc/i686-pc-cygwin/4.9.2/libgcc_eh.a(unwind-dw2.o)
 .rdata         0x00463e00       0x34 /usr/lib/gcc/i686-pc-cygwin/4.9.2/libgcc_eh.a(unwind-dw2-fde.o)
 *(SORT(.rdata$*))
 .rdata$CSWTCH.27
                0x00463e34       0x10 /usr/lib/gcc/i686-pc-cygwin/4.9.2/libgfortran.a(fpu.o)
 *fill*         0x00463e44       0x1c 
 .rdata$CSWTCH.298
                0x00463e60       0x20 /usr/lib/gcc/i686-pc-cygwin/4.9.2/libgfortran.a(write.o)
 .rdata$CSWTCH.3
                0x00463e80       0x80 /usr/lib/gcc/i686-pc-cygwin/4.9.2/libgfortran.a(compile_options.o)
 .rdata$CSWTCH.4
                0x00463f00       0x80 /usr/lib/gcc/i686-pc-cygwin/4.9.2/libgfortran.a(compile_options.o)
 .rdata$__func__.24490
                0x00463f80        0xc /usr/lib/gcc/i686-pc-cygwin/4.9.2/libgfortran.a(date_and_time.o)
 .rdata$__func__.24505
                0x00463f8c        0xc /usr/lib/gcc/i686-pc-cygwin/4.9.2/libgfortran.a(date_and_time.o)
 .rdata$__func__.24525
                0x00463f98        0xc /usr/lib/gcc/i686-pc-cygwin/4.9.2/libgfortran.a(date_and_time.o)
 .rdata$__func__.24540
                0x00463fa4        0xc /usr/lib/gcc/i686-pc-cygwin/4.9.2/libgfortran.a(date_and_time.o)
 .rdata$__func__.24563
                0x00463fb0        0xc /usr/lib/gcc/i686-pc-cygwin/4.9.2/libgfortran.a(date_and_time.o)
 .rdata$__func__.24581
                0x00463fbc        0xc /usr/lib/gcc/i686-pc-cygwin/4.9.2/libgfortran.a(date_and_time.o)
 .rdata$__func__.24604
                0x00463fc8        0xc /usr/lib/gcc/i686-pc-cygwin/4.9.2/libgfortran.a(date_and_time.o)
 .rdata$__func__.24622
                0x00463fd4        0xc /usr/lib/gcc/i686-pc-cygwin/4.9.2/libgfortran.a(date_and_time.o)
 .rdata$__func__.5828
                0x00463fe0        0xc /usr/lib/gcc/i686-pc-cygwin/4.9.2/libgfortran.a(error.o)
 .rdata$__func__.7467
                0x00463fec        0x8 /usr/lib/gcc/i686-pc-cygwin/4.9.2/libgfortran.a(read.o)
 .rdata$a.7711  0x00463ff4       0x10 /usr/lib/gcc/i686-pc-cygwin/4.9.2/libgfortran.a(write.o)
 *fill*         0x00464004       0x1c 
 .rdata$access_opt
                0x00464020       0x40 /usr/lib/gcc/i686-pc-cygwin/4.9.2/libgfortran.a(open.o)
 .rdata$action_opt
                0x00464060       0x20 /usr/lib/gcc/i686-pc-cygwin/4.9.2/libgfortran.a(open.o)
 .rdata$advance_opt
                0x00464080       0x18 /usr/lib/gcc/i686-pc-cygwin/4.9.2/libgfortran.a(transfer.o)
 .rdata$async_opt
                0x00464098       0x18 /usr/lib/gcc/i686-pc-cygwin/4.9.2/libgfortran.a(open.o)
 *fill*         0x004640b0       0x10 
 .rdata$bad_hollerith
                0x004640c0       0x40 /usr/lib/gcc/i686-pc-cygwin/4.9.2/libgfortran.a(format.o)
 .rdata$bad_string
                0x00464100       0x40 /usr/lib/gcc/i686-pc-cygwin/4.9.2/libgfortran.a(format.o)
 .rdata$blank_opt
                0x00464140       0x18 /usr/lib/gcc/i686-pc-cygwin/4.9.2/libgfortran.a(open.o)
 .rdata$blank_opt
                0x00464158       0x18 /usr/lib/gcc/i686-pc-cygwin/4.9.2/libgfortran.a(transfer.o)
 *fill*         0x00464170       0x10 
 .rdata$buf_vtable
                0x00464180       0x20 /usr/lib/gcc/i686-pc-cygwin/4.9.2/libgfortran.a(unix.o)
 .rdata$colon_node
                0x004641a0       0x40 /usr/lib/gcc/i686-pc-cygwin/4.9.2/libgfortran.a(format.o)
 .rdata$convert_opt
                0x004641e0       0x40 /usr/lib/gcc/i686-pc-cygwin/4.9.2/libgfortran.a(open.o)
 .rdata$decimal_opt
                0x00464220       0x18 /usr/lib/gcc/i686-pc-cygwin/4.9.2/libgfortran.a(open.o)
 .rdata$decimal_opt
                0x00464238       0x18 /usr/lib/gcc/i686-pc-cygwin/4.9.2/libgfortran.a(transfer.o)
 *fill*         0x00464250       0x10 
 .rdata$delim_opt
                0x00464260       0x20 /usr/lib/gcc/i686-pc-cygwin/4.9.2/libgfortran.a(open.o)
 .rdata$delim_opt
                0x00464280       0x20 /usr/lib/gcc/i686-pc-cygwin/4.9.2/libgfortran.a(transfer.o)
 .rdata$encoding_opt
                0x004642a0       0x18 /usr/lib/gcc/i686-pc-cygwin/4.9.2/libgfortran.a(open.o)
 .rdata$form_opt
                0x004642b8       0x18 /usr/lib/gcc/i686-pc-cygwin/4.9.2/libgfortran.a(open.o)
 *fill*         0x004642d0       0x10 
 .rdata$kiss_default_seed
                0x004642e0       0x40 /usr/lib/gcc/i686-pc-cygwin/4.9.2/libgfortran.a(random.o)
 .rdata$limits.7506
                0x00464320        0x8 /usr/lib/gcc/i686-pc-cygwin/4.9.2/libgfortran.a(write.o)
 .rdata$masks.7213
                0x00464328        0x8 /usr/lib/gcc/i686-pc-cygwin/4.9.2/libgfortran.a(read.o)
 .rdata$masks.7505
                0x00464330        0x8 /usr/lib/gcc/i686-pc-cygwin/4.9.2/libgfortran.a(write.o)
 *fill*         0x00464338        0x8 
 .rdata$mem4_vtable
                0x00464340       0x20 /usr/lib/gcc/i686-pc-cygwin/4.9.2/libgfortran.a(unix.o)
 .rdata$mem_vtable
                0x00464360       0x20 /usr/lib/gcc/i686-pc-cygwin/4.9.2/libgfortran.a(unix.o)
 .rdata$no      0x00464380        0x4 /usr/lib/gcc/i686-pc-cygwin/4.9.2/libgfortran.a(inquire.o)
 .rdata$no      0x00464384        0x4 /usr/lib/gcc/i686-pc-cygwin/4.9.2/libgfortran.a(unix.o)
 *fill*         0x00464388       0x18 
 .rdata$nonneg_required
                0x004643a0       0x40 /usr/lib/gcc/i686-pc-cygwin/4.9.2/libgfortran.a(format.o)
 .rdata$pad_opt
                0x004643e0       0x18 /usr/lib/gcc/i686-pc-cygwin/4.9.2/libgfortran.a(open.o)
 .rdata$pad_opt
                0x004643f8       0x18 /usr/lib/gcc/i686-pc-cygwin/4.9.2/libgfortran.a(transfer.o)
 .rdata$patns.7214
                0x00464410        0x8 /usr/lib/gcc/i686-pc-cygwin/4.9.2/libgfortran.a(read.o)
 .rdata$period_required
                0x00464418       0x1c /usr/lib/gcc/i686-pc-cygwin/4.9.2/libgfortran.a(format.o)
 *fill*         0x00464434        0xc 
 .rdata$posint_required
                0x00464440       0x40 /usr/lib/gcc/i686-pc-cygwin/4.9.2/libgfortran.a(format.o)
 .rdata$position_opt
                0x00464480       0x20 /usr/lib/gcc/i686-pc-cygwin/4.9.2/libgfortran.a(open.o)
 .rdata$raw_vtable
                0x004644a0       0x20 /usr/lib/gcc/i686-pc-cygwin/4.9.2/libgfortran.a(unix.o)
 .rdata$reversion_error
                0x004644c0       0x40 /usr/lib/gcc/i686-pc-cygwin/4.9.2/libgfortran.a(format.o)
 .rdata$round_opt
                0x00464500       0x40 /usr/lib/gcc/i686-pc-cygwin/4.9.2/libgfortran.a(open.o)
 .rdata$round_opt
                0x00464540       0x40 /usr/lib/gcc/i686-pc-cygwin/4.9.2/libgfortran.a(transfer.o)
 .rdata$sign_opt
                0x00464580       0x20 /usr/lib/gcc/i686-pc-cygwin/4.9.2/libgfortran.a(open.o)
 .rdata$sign_opt
                0x004645a0       0x20 /usr/lib/gcc/i686-pc-cygwin/4.9.2/libgfortran.a(transfer.o)
 .rdata$status_opt
                0x004645c0       0x18 /usr/lib/gcc/i686-pc-cygwin/4.9.2/libgfortran.a(close.o)
 *fill*         0x004645d8        0x8 
 .rdata$status_opt
                0x004645e0       0x40 /usr/lib/gcc/i686-pc-cygwin/4.9.2/libgfortran.a(open.o)
 .rdata$undefined
                0x00464620        0xc /usr/lib/gcc/i686-pc-cygwin/4.9.2/libgfortran.a(inquire.o)
 *fill*         0x0046462c       0x14 
 .rdata$unexpected_element
                0x00464640       0x40 /usr/lib/gcc/i686-pc-cygwin/4.9.2/libgfortran.a(format.o)
 .rdata$unexpected_end
                0x00464680       0x20 /usr/lib/gcc/i686-pc-cygwin/4.9.2/libgfortran.a(format.o)
 .rdata$unknown
                0x004646a0        0x8 /usr/lib/gcc/i686-pc-cygwin/4.9.2/libgfortran.a(unix.o)
 .rdata$yes     0x004646a8        0x4 /usr/lib/gcc/i686-pc-cygwin/4.9.2/libgfortran.a(inquire.o)
 .rdata$yes     0x004646ac        0x4 /usr/lib/gcc/i686-pc-cygwin/4.9.2/libgfortran.a(unix.o)
 *fill*         0x004646b0       0x10 
 .rdata$zero_width
                0x004646c0       0x20 /usr/lib/gcc/i686-pc-cygwin/4.9.2/libgfortran.a(format.o)
 .rdata$zzz     0x004646e0       0x34 /usr/lib/gcc/i686-pc-cygwin/4.9.2/../../../crt0.o
 .rdata$zzz     0x00464714       0x14 /usr/lib/gcc/i686-pc-cygwin/4.9.2/crtbegin.o
 .rdata$zzz     0x00464728       0x14 obj/imploc.o
 .rdata$zzz     0x0046473c       0x14 obj/io_list.o
 .rdata$zzz     0x00464750       0x14 obj/mensamod.o
 .rdata$zzz     0x00464764       0x14 obj/zcomm.o
 .rdata$zzz     0x00464778       0x14 obj/getoptm.o
 .rdata$zzz     0x0046478c       0x14 obj/mlogit.o
 .rdata$zzz     0x004647a0       0x14 obj/mpowit.o
 .rdata$zzz     0x004647b4       0x14 obj/distribm.o
 .rdata$zzz     0x004647c8       0x14 obj/lcomm.o
 .rdata$zzz     0x004647dc       0x14 obj/control.o
 .rdata$zzz     0x004647f0       0x14 obj/gener.o
 .rdata$zzz     0x00464804       0x14 obj/param.o
 .rdata$zzz     0x00464818       0x14 obj/lparc.o
 .rdata$zzz     0x0046482c       0x14 obj/optionsm.o
 .rdata$zzz     0x00464840       0x14 obj/debugm.o
 .rdata$zzz     0x00464854       0x14 /usr/lib/gcc/i686-pc-cygwin/4.9.2/libgfortran.a(compile_options.o)
 .rdata$zzz     0x00464868       0x14 /usr/lib/gcc/i686-pc-cygwin/4.9.2/libgfortran.a(environ.o)
 .rdata$zzz     0x0046487c       0x14 /usr/lib/gcc/i686-pc-cygwin/4.9.2/libgfortran.a(error.o)
 .rdata$zzz     0x00464890       0x14 /usr/lib/gcc/i686-pc-cygwin/4.9.2/libgfortran.a(main.o)
 .rdata$zzz     0x004648a4       0x14 /usr/lib/gcc/i686-pc-cygwin/4.9.2/libgfortran.a(memory.o)
 .rdata$zzz     0x004648b8       0x14 /usr/lib/gcc/i686-pc-cygwin/4.9.2/libgfortran.a(stop.o)
 .rdata$zzz     0x004648cc       0x14 /usr/lib/gcc/i686-pc-cygwin/4.9.2/libgfortran.a(string.o)
 .rdata$zzz     0x004648e0       0x14 /usr/lib/gcc/i686-pc-cygwin/4.9.2/libgfortran.a(close.o)
 .rdata$zzz     0x004648f4       0x14 /usr/lib/gcc/i686-pc-cygwin/4.9.2/libgfortran.a(file_pos.o)
 .rdata$zzz     0x00464908       0x14 /usr/lib/gcc/i686-pc-cygwin/4.9.2/libgfortran.a(inquire.o)
 .rdata$zzz     0x0046491c       0x14 /usr/lib/gcc/i686-pc-cygwin/4.9.2/libgfortran.a(lock.o)
 .rdata$zzz     0x00464930       0x14 /usr/lib/gcc/i686-pc-cygwin/4.9.2/libgfortran.a(open.o)
 .rdata$zzz     0x00464944       0x14 /usr/lib/gcc/i686-pc-cygwin/4.9.2/libgfortran.a(transfer.o)
 .rdata$zzz     0x00464958       0x14 /usr/lib/gcc/i686-pc-cygwin/4.9.2/libgfortran.a(unit.o)
 .rdata$zzz     0x0046496c       0x14 /usr/lib/gcc/i686-pc-cygwin/4.9.2/libgfortran.a(unix.o)
 .rdata$zzz     0x00464980       0x14 /usr/lib/gcc/i686-pc-cygwin/4.9.2/libgfortran.a(write.o)
 .rdata$zzz     0x00464994       0x14 /usr/lib/gcc/i686-pc-cygwin/4.9.2/libgfortran.a(fbuf.o)
 .rdata$zzz     0x004649a8       0x14 /usr/lib/gcc/i686-pc-cygwin/4.9.2/libgfortran.a(args.o)
 .rdata$zzz     0x004649bc       0x14 /usr/lib/gcc/i686-pc-cygwin/4.9.2/libgfortran.a(chdir.o)
 .rdata$zzz     0x004649d0       0x14 /usr/lib/gcc/i686-pc-cygwin/4.9.2/libgfortran.a(date_and_time.o)
 .rdata$zzz     0x004649e4       0x14 /usr/lib/gcc/i686-pc-cygwin/4.9.2/libgfortran.a(string_intrinsics.o)
 .rdata$zzz     0x004649f8       0x14 /usr/lib/gcc/i686-pc-cygwin/4.9.2/libgfortran.a(random.o)
 .rdata$zzz     0x00464a0c       0x14 /usr/lib/gcc/i686-pc-cygwin/4.9.2/libgfortran.a(backtrace.o)
 .rdata$zzz     0x00464a20       0x14 /usr/lib/gcc/i686-pc-cygwin/4.9.2/libgfortran.a(fpu.o)
 .rdata$zzz     0x00464a34       0x14 /usr/lib/gcc/i686-pc-cygwin/4.9.2/libgfortran.a(format.o)
 .rdata$zzz     0x00464a48       0x14 /usr/lib/gcc/i686-pc-cygwin/4.9.2/libgfortran.a(list_read.o)
 .rdata$zzz     0x00464a5c       0x14 /usr/lib/gcc/i686-pc-cygwin/4.9.2/libgfortran.a(read.o)
 .rdata$zzz     0x00464a70       0x14 /usr/lib/gcc/i686-pc-cygwin/4.9.2/libgfortran.a(size_from_kind.o)
 .rdata$zzz     0x00464a84       0x14 /usr/lib/gcc/i686-pc-cygwin/4.9.2/libgcc.a(_divdi3.o)
 .rdata$zzz     0x00464a98       0x14 /usr/lib/gcc/i686-pc-cygwin/4.9.2/libgcc.a(_udivdi3.o)
 .rdata$zzz     0x00464aac       0x14 /usr/lib/gcc/i686-pc-cygwin/4.9.2/libgcc.a(_umoddi3.o)
 .rdata$zzz     0x00464ac0       0x14 /usr/lib/gcc/i686-pc-cygwin/4.9.2/libgcc.a(addtf3.o)
 .rdata$zzz     0x00464ad4       0x14 /usr/lib/gcc/i686-pc-cygwin/4.9.2/libgcc.a(divtf3.o)
 .rdata$zzz     0x00464ae8       0x14 /usr/lib/gcc/i686-pc-cygwin/4.9.2/libgcc.a(eqtf2.o)
 .rdata$zzz     0x00464afc       0x14 /usr/lib/gcc/i686-pc-cygwin/4.9.2/libgcc.a(getf2.o)
 .rdata$zzz     0x00464b10       0x14 /usr/lib/gcc/i686-pc-cygwin/4.9.2/libgcc.a(letf2.o)
 .rdata$zzz     0x00464b24       0x14 /usr/lib/gcc/i686-pc-cygwin/4.9.2/libgcc.a(multf3.o)
 .rdata$zzz     0x00464b38       0x14 /usr/lib/gcc/i686-pc-cygwin/4.9.2/libgcc.a(subtf3.o)
 .rdata$zzz     0x00464b4c       0x14 /usr/lib/gcc/i686-pc-cygwin/4.9.2/libgcc.a(floatunditf.o)
 .rdata$zzz     0x00464b60       0x14 /usr/lib/gcc/i686-pc-cygwin/4.9.2/libgcc.a(sfp-exceptions.o)
 .rdata$zzz     0x00464b74       0x14 /usr/lib/gcc/i686-pc-cygwin/4.9.2/libgcc_eh.a(unwind-dw2.o)
 .rdata$zzz     0x00464b88       0x14 /usr/lib/gcc/i686-pc-cygwin/4.9.2/libgcc_eh.a(unwind-dw2-fde.o)
 .rdata$zzz     0x00464b9c       0x14 /usr/lib/gcc/i686-pc-cygwin/4.9.2/libquadmath.a(isnanq.o)
 .rdata$zzz     0x00464bb0       0x14 /usr/lib/gcc/i686-pc-cygwin/4.9.2/libquadmath.a(signbitq.o)
 .rdata$zzz     0x00464bc4       0x14 /usr/lib/gcc/i686-pc-cygwin/4.9.2/libquadmath.a(finiteq.o)
 .rdata$zzz     0x00464bd8       0x34 /usr/lib/gcc/i686-pc-cygwin/4.9.2/../../../libcygwin.a(cygwin_crt0.o)
 .rdata$zzz     0x00464c0c       0x34 /usr/lib/gcc/i686-pc-cygwin/4.9.2/../../../libcygwin.a(premain0.o)
 .rdata$zzz     0x00464c40       0x34 /usr/lib/gcc/i686-pc-cygwin/4.9.2/../../../libcygwin.a(premain1.o)
 .rdata$zzz     0x00464c74       0x34 /usr/lib/gcc/i686-pc-cygwin/4.9.2/../../../libcygwin.a(premain2.o)
 .rdata$zzz     0x00464ca8       0x34 /usr/lib/gcc/i686-pc-cygwin/4.9.2/../../../libcygwin.a(premain3.o)
 .rdata$zzz     0x00464cdc       0x34 /usr/lib/gcc/i686-pc-cygwin/4.9.2/../../../libcygwin.a(_cygwin_crt0_common.o)
 .rdata$zzz     0x00464d10       0x34 /usr/lib/gcc/i686-pc-cygwin/4.9.2/../../../libcygwin.a(dll_entry.o)
 .rdata$zzz     0x00464d44       0x34 /usr/lib/gcc/i686-pc-cygwin/4.9.2/../../../libcygwin.a(dll_main.o)
 .rdata$zzz     0x00464d78       0x34 /usr/lib/gcc/i686-pc-cygwin/4.9.2/../../../libcygwin.a(pseudo-reloc-dummy.o)
 .rdata$zzz     0x00464dac       0x34 /usr/lib/gcc/i686-pc-cygwin/4.9.2/../../../libcygwin.a(cygwin_attach_dll.o)
 .rdata$zzz     0x00464de0       0x14 /usr/lib/gcc/i686-pc-cygwin/4.9.2/libgcc.a(_ctors.o)
 .rdata$zzz     0x00464df4       0x14 /usr/lib/gcc/i686-pc-cygwin/4.9.2/crtend.o
                0x00464e08                __rt_psrelocs_start = .
 *(.rdata_runtime_pseudo_reloc)
                0x00464e08                __rt_psrelocs_end = .
                0x00000000                __rt_psrelocs_size = (__rt_psrelocs_end - __rt_psrelocs_start)
                0x00464e08                ___RUNTIME_PSEUDO_RELOC_LIST_END__ = .
                0x00464e08                __RUNTIME_PSEUDO_RELOC_LIST_END__ = .
                0x00464e08                ___RUNTIME_PSEUDO_RELOC_LIST__ = (. - __rt_psrelocs_size)
                0x00464e08                __RUNTIME_PSEUDO_RELOC_LIST__ = (. - __rt_psrelocs_size)

.buildid        0x00465000      0x200
 .buildid       0x00465000       0x35 /usr/lib/gcc/i686-pc-cygwin/4.9.2/../../../crt0.o

.eh_frame       0x00466000     0x7c00
 *(.eh_frame*)
 .eh_frame      0x00466000       0x38 /usr/lib/gcc/i686-pc-cygwin/4.9.2/../../../crt0.o
 .eh_frame      0x00466038       0x68 /usr/lib/gcc/i686-pc-cygwin/4.9.2/crtbegin.o
 .eh_frame      0x004660a0       0x84 obj/imploc.o
 .eh_frame      0x00466124      0x2e8 obj/io_list.o
 .eh_frame      0x0046640c       0xdc obj/mensamod.o
 .eh_frame      0x004664e8       0x8c obj/zcomm.o
 .eh_frame      0x00466574      0x350 obj/getoptm.o
 .eh_frame      0x004668c4       0x94 obj/mlogit.o
 .eh_frame      0x00466958       0x88 obj/mpowit.o
 .eh_frame      0x004669e0       0x7c obj/distribm.o
 .eh_frame      0x00466a5c      0x430 obj/lcomm.o
 .eh_frame      0x00466e8c      0x42c obj/control.o
 .eh_frame      0x004672b8      0x464 obj/gener.o
 .eh_frame      0x0046771c       0x2c obj/param.o
 .eh_frame      0x00467748       0x48 obj/optionsm.o
 .eh_frame      0x00467790      0x160 obj/debugm.o
 .eh_frame      0x004678f0       0xcc /usr/lib/gcc/i686-pc-cygwin/4.9.2/libgfortran.a(compile_options.o)
 .eh_frame      0x004679bc      0x40c /usr/lib/gcc/i686-pc-cygwin/4.9.2/libgfortran.a(environ.o)
 .eh_frame      0x00467dc8      0x238 /usr/lib/gcc/i686-pc-cygwin/4.9.2/libgfortran.a(error.o)
 .eh_frame      0x00468000      0x14c /usr/lib/gcc/i686-pc-cygwin/4.9.2/libgfortran.a(main.o)
 .eh_frame      0x0046814c       0x74 /usr/lib/gcc/i686-pc-cygwin/4.9.2/libgfortran.a(memory.o)
 .eh_frame      0x004681c0       0xc0 /usr/lib/gcc/i686-pc-cygwin/4.9.2/libgfortran.a(stop.o)
 .eh_frame      0x00468280      0x120 /usr/lib/gcc/i686-pc-cygwin/4.9.2/libgfortran.a(string.o)
 .eh_frame      0x004683a0       0x60 /usr/lib/gcc/i686-pc-cygwin/4.9.2/libgfortran.a(close.o)
 .eh_frame      0x00468400       0xfc /usr/lib/gcc/i686-pc-cygwin/4.9.2/libgfortran.a(file_pos.o)
 .eh_frame      0x004684fc       0xc4 /usr/lib/gcc/i686-pc-cygwin/4.9.2/libgfortran.a(inquire.o)
 .eh_frame      0x004685c0       0x60 /usr/lib/gcc/i686-pc-cygwin/4.9.2/libgfortran.a(lock.o)
 .eh_frame      0x00468620      0x158 /usr/lib/gcc/i686-pc-cygwin/4.9.2/libgfortran.a(open.o)
 .eh_frame      0x00468778      0xad0 /usr/lib/gcc/i686-pc-cygwin/4.9.2/libgfortran.a(transfer.o)
 .eh_frame      0x00469248      0x380 /usr/lib/gcc/i686-pc-cygwin/4.9.2/libgfortran.a(unit.o)
 .eh_frame      0x004695c8      0xa98 /usr/lib/gcc/i686-pc-cygwin/4.9.2/libgfortran.a(unix.o)
 .eh_frame      0x0046a060      0x8bc /usr/lib/gcc/i686-pc-cygwin/4.9.2/libgfortran.a(write.o)
 .eh_frame      0x0046a91c      0x194 /usr/lib/gcc/i686-pc-cygwin/4.9.2/libgfortran.a(fbuf.o)
 .eh_frame      0x0046aab0      0x168 /usr/lib/gcc/i686-pc-cygwin/4.9.2/libgfortran.a(args.o)
 .eh_frame      0x0046ac18       0xa8 /usr/lib/gcc/i686-pc-cygwin/4.9.2/libgfortran.a(chdir.o)
 .eh_frame      0x0046acc0      0x298 /usr/lib/gcc/i686-pc-cygwin/4.9.2/libgfortran.a(date_and_time.o)
 .eh_frame      0x0046af58      0x638 /usr/lib/gcc/i686-pc-cygwin/4.9.2/libgfortran.a(string_intrinsics.o)
 .eh_frame      0x0046b590      0x348 /usr/lib/gcc/i686-pc-cygwin/4.9.2/libgfortran.a(random.o)
 .eh_frame      0x0046b8d8       0xd4 /usr/lib/gcc/i686-pc-cygwin/4.9.2/libgfortran.a(backtrace.o)
 .eh_frame      0x0046b9ac       0xe8 /usr/lib/gcc/i686-pc-cygwin/4.9.2/libgfortran.a(fpu.o)
 .eh_frame      0x0046ba94      0x2f0 /usr/lib/gcc/i686-pc-cygwin/4.9.2/libgfortran.a(format.o)
 .eh_frame      0x0046bd84      0x660 /usr/lib/gcc/i686-pc-cygwin/4.9.2/libgfortran.a(list_read.o)
 .eh_frame      0x0046c3e4      0x428 /usr/lib/gcc/i686-pc-cygwin/4.9.2/libgfortran.a(read.o)
 .eh_frame      0x0046c80c       0x40 /usr/lib/gcc/i686-pc-cygwin/4.9.2/libgfortran.a(size_from_kind.o)
 .eh_frame      0x0046c84c       0x58 /usr/lib/gcc/i686-pc-cygwin/4.9.2/libgcc.a(_divdi3.o)
 .eh_frame      0x0046c8a4       0x9c /usr/lib/gcc/i686-pc-cygwin/4.9.2/libgcc.a(_udivdi3.o)
 .eh_frame      0x0046c940       0x9c /usr/lib/gcc/i686-pc-cygwin/4.9.2/libgcc.a(_umoddi3.o)
 .eh_frame      0x0046c9dc       0x5c /usr/lib/gcc/i686-pc-cygwin/4.9.2/libgcc.a(addtf3.o)
 .eh_frame      0x0046ca38       0x5c /usr/lib/gcc/i686-pc-cygwin/4.9.2/libgcc.a(divtf3.o)
 .eh_frame      0x0046ca94       0x70 /usr/lib/gcc/i686-pc-cygwin/4.9.2/libgcc.a(eqtf2.o)
 .eh_frame      0x0046cb04       0x84 /usr/lib/gcc/i686-pc-cygwin/4.9.2/libgcc.a(getf2.o)
 .eh_frame      0x0046cb88       0x84 /usr/lib/gcc/i686-pc-cygwin/4.9.2/libgcc.a(letf2.o)
 .eh_frame      0x0046cc0c       0x5c /usr/lib/gcc/i686-pc-cygwin/4.9.2/libgcc.a(multf3.o)
 .eh_frame      0x0046cc68       0x5c /usr/lib/gcc/i686-pc-cygwin/4.9.2/libgcc.a(subtf3.o)
 .eh_frame      0x0046ccc4       0x58 /usr/lib/gcc/i686-pc-cygwin/4.9.2/libgcc.a(floatunditf.o)
 .eh_frame      0x0046cd1c       0x30 /usr/lib/gcc/i686-pc-cygwin/4.9.2/libgcc.a(sfp-exceptions.o)
 .eh_frame      0x0046cd4c      0x594 /usr/lib/gcc/i686-pc-cygwin/4.9.2/libgcc_eh.a(unwind-dw2.o)
 .eh_frame      0x0046d2e0      0x50c /usr/lib/gcc/i686-pc-cygwin/4.9.2/libgcc_eh.a(unwind-dw2-fde.o)
 .eh_frame      0x0046d7ec       0x3c /usr/lib/gcc/i686-pc-cygwin/4.9.2/libquadmath.a(isnanq.o)
 .eh_frame      0x0046d828       0x30 /usr/lib/gcc/i686-pc-cygwin/4.9.2/libquadmath.a(signbitq.o)
 .eh_frame      0x0046d858       0x30 /usr/lib/gcc/i686-pc-cygwin/4.9.2/libquadmath.a(finiteq.o)
 .eh_frame      0x0046d888       0x34 /usr/lib/gcc/i686-pc-cygwin/4.9.2/../../../libcygwin.a(cygwin_crt0.o)
 .eh_frame      0x0046d8bc       0x2c /usr/lib/gcc/i686-pc-cygwin/4.9.2/../../../libcygwin.a(premain0.o)
 .eh_frame      0x0046d8e8       0x2c /usr/lib/gcc/i686-pc-cygwin/4.9.2/../../../libcygwin.a(premain1.o)
 .eh_frame      0x0046d914       0x2c /usr/lib/gcc/i686-pc-cygwin/4.9.2/../../../libcygwin.a(premain2.o)
 .eh_frame      0x0046d940       0x2c /usr/lib/gcc/i686-pc-cygwin/4.9.2/../../../libcygwin.a(premain3.o)
 .eh_frame      0x0046d96c       0x40 /usr/lib/gcc/i686-pc-cygwin/4.9.2/../../../libcygwin.a(_cygwin_crt0_common.o)
 .eh_frame      0x0046d9ac       0x9c /usr/lib/gcc/i686-pc-cygwin/4.9.2/../../../libcygwin.a(dll_entry.o)
 .eh_frame      0x0046da48       0x2c /usr/lib/gcc/i686-pc-cygwin/4.9.2/../../../libcygwin.a(dll_main.o)
 .eh_frame      0x0046da74       0x2c /usr/lib/gcc/i686-pc-cygwin/4.9.2/../../../libcygwin.a(pseudo-reloc-dummy.o)
 .eh_frame      0x0046daa0       0x3c /usr/lib/gcc/i686-pc-cygwin/4.9.2/../../../libcygwin.a(cygwin_attach_dll.o)
 .eh_frame      0x0046dadc       0x3c /usr/lib/gcc/i686-pc-cygwin/4.9.2/crtend.o

.pdata
 *(.pdata)

.bss            0x0046e000  0x15e96f4
                0x0046e000                __bss_start__ = .
 *(.bss)
 .bss           0x0046e000        0x0 /usr/lib/gcc/i686-pc-cygwin/4.9.2/../../../crt0.o
 .bss           0x0046e000       0x18 /usr/lib/gcc/i686-pc-cygwin/4.9.2/crtbegin.o
 *fill*         0x0046e018       0x28 
 .bss           0x0046e040    0x44c00 obj/imploc.o
 .bss           0x004b2c40        0x0 obj/io_list.o
 .bss           0x004b2c40        0x0 obj/mensamod.o
 .bss           0x004b2c40     0xcac0 obj/zcomm.o
                0x004b2c40                __zcomm_MOD_zexter
                0x004b308c                __zcomm_MOD_nzn
                0x004b3090                __zcomm_MOD_nz2
                0x004b3094                __zcomm_MOD_nz1
                0x004b30c0                __zcomm_MOD_numzon
                0x004b4200                __zcomm_MOD_nomzon
                0x004bcb80                __zcomm_MOD_jer2
                0x004bdcc0                __zcomm_MOD_jer1
                0x004bee00                __zcomm_MOD_essubzona
                0x004bf280                __zcomm_MOD_consubzonas
 .bss           0x004bf700    0x15580 obj/getoptm.o
                0x004bf700                __getoptm_MOD_suppressheaders
 .bss           0x004d4c80        0x0 obj/mlogit.o
 .bss           0x004d4c80        0x0 obj/mpowit.o
 .bss           0x004d4c80        0x0 obj/distribm.o
 .bss           0x004d4c80  0x114ba00 obj/lcomm.o
                0x004d4c80                __lcomm_MOD_xpro
                0x0055e480                __lcomm_MOD_xdem
                0x005a3080                __lcomm_MOD_valag
                0x005e7c80                __lcomm_MOD_utra
                0x00a856c0                __lcomm_MOD_utcon
                0x00b0eec0                __lcomm_MOD_unstock
                0x00b53ac0                __lcomm_MOD_tpro
                0x00b53bc0                __lcomm_MOD_stock
                0x00b987c0                __lcomm_MOD_rmin
                0x00bdd3c0                __lcomm_MOD_rmax
                0x00c21fc0                __lcomm_MOD_restot
                0x00c220c0                __lcomm_MOD_probase
                0x00c66cc0                __lcomm_MOD_proan
                0x00cf04c0                __lcomm_MOD_pro
                0x00d79cc0                __lcomm_MOD_precio
                0x00e034c0                __lcomm_MOD_prebase
                0x00e480c0                __lcomm_MOD_prean
                0x00ed18c0                __lcomm_MOD_isexogsector
                0x00ed19c0                __lcomm_MOD_flujo
                0x00ed2b00                __lcomm_MOD_dxpro
                0x00f17700                __lcomm_MOD_dxdem
                0x00f5c300                __lcomm_MOD_drepro
                0x00f5c400                __lcomm_MOD_dremin
                0x00f5c500                __lcomm_MOD_dremax
                0x00f5c600                __lcomm_MOD_drecon
                0x00f5c700                __lcomm_MOD_dem
                0x00fa1300                __lcomm_MOD_dampfactor
                0x00fa1340                __lcomm_MOD_crepro
                0x00fa1440                __lcomm_MOD_cremin
                0x00fa1540                __lcomm_MOD_cremax
                0x00fa1640                __lcomm_MOD_crecon
                0x00fa1740                __lcomm_MOD_costra
                0x0143f180                __lcomm_MOD_cospro
                0x014c8980                __lcomm_MOD_coscon
                0x0150d580                __lcomm_MOD_atrain
                0x01552180                __lcomm_MOD_atrac
                0x01596d80                __lcomm_MOD_ajuste
 .bss           0x01620680     0x1a40 obj/control.o
                0x01620680                __control_MOD_prevpoltype
                0x01620716                __control_MOD_pol
                0x0162071c                __control_MOD_npol
                0x01620740                __control_MOD_nompol
                0x01620a40                __control_MOD_nombre
                0x01620ac0                __control_MOD_iprevpol
                0x01620d40                __control_MOD_estudio
                0x01620dc0                __control_MOD_descpol
                0x01622080                __control_MOD_area
 .bss           0x016220c0        0x0 obj/gener.o
 .bss           0x016220c0        0x0 obj/param.o
 .bss           0x016220c0   0x435340 obj/lparc.o
                0x016220c0                __lparc_MOD_xalfapro
                0x016260c0                __lparc_MOD_xalfapre
                0x0162a0c0                __lparc_MOD_xalfacap
                0x0162e0c0                __lparc_MOD_xalfa
                0x016360c0                __lparc_MOD_targetsector
                0x016361c0                __lparc_MOD_suspen
                0x0163a1c0                __lparc_MOD_suslgsc
                0x0163e1c0                __lparc_MOD_selas
                0x016421c0                __lparc_MOD_sectortype
                0x016422c0                __lparc_MOD_seclgsc
                0x016423c0                __lparc_MOD_oscmax
                0x01642400                __lparc_MOD_numsec
                0x01642500                __lparc_MOD_nsust
                0x01a42500                __lparc_MOD_ns
                0x01a42540                __lparc_MOD_nomsec
                0x01a42d40                __lparc_MOD_nit
                0x01a42d44                __lparc_MOD_nflu
                0x01a42d80                __lparc_MOD_minpricetocostratio
                0x01a42e80                __lparc_MOD_lflu
                0x01a42ec0                __lparc_MOD_gama
                0x01a430c0                __lparc_MOD_factoratrac
                0x01a431c0                __lparc_MOD_demin
                0x01a471c0                __lparc_MOD_demax
                0x01a4b1c0                __lparc_MOD_delas
                0x01a4f1c0                __lparc_MOD_conv
                0x01a4f200                __lparc_MOD_beta
                0x01a4f400                __lparc_MOD_alfa
 .bss           0x01a57400        0xc obj/optionsm.o
                0x01a57400                __optionsm_MOD_use_powit_trans
                0x01a57404                __optionsm_MOD_use_powit_loc
                0x01a57408                __optionsm_MOD_use_powit
 *fill*         0x01a5740c       0x34 
 .bss           0x01a57440      0x100 obj/debugm.o
                0x01a57440                __debugm_MOD_dmsg
 .bss           0x01a57540        0x0 /usr/lib/gcc/i686-pc-cygwin/4.9.2/libgfortran.a(compile_options.o)
 .bss           0x01a57540        0x0 /usr/lib/gcc/i686-pc-cygwin/4.9.2/libgfortran.a(environ.o)
 .bss           0x01a57540        0x0 /usr/lib/gcc/i686-pc-cygwin/4.9.2/libgfortran.a(error.o)
 .bss           0x01a57540        0x0 /usr/lib/gcc/i686-pc-cygwin/4.9.2/libgfortran.a(main.o)
 .bss           0x01a57540        0x0 /usr/lib/gcc/i686-pc-cygwin/4.9.2/libgfortran.a(memory.o)
 .bss           0x01a57540        0x0 /usr/lib/gcc/i686-pc-cygwin/4.9.2/libgfortran.a(stop.o)
 .bss           0x01a57540        0x0 /usr/lib/gcc/i686-pc-cygwin/4.9.2/libgfortran.a(string.o)
 .bss           0x01a57540        0x0 /usr/lib/gcc/i686-pc-cygwin/4.9.2/libgfortran.a(close.o)
 .bss           0x01a57540        0x0 /usr/lib/gcc/i686-pc-cygwin/4.9.2/libgfortran.a(file_pos.o)
 .bss           0x01a57540        0x0 /usr/lib/gcc/i686-pc-cygwin/4.9.2/libgfortran.a(inquire.o)
 .bss           0x01a57540        0x0 /usr/lib/gcc/i686-pc-cygwin/4.9.2/libgfortran.a(lock.o)
 .bss           0x01a57540        0x0 /usr/lib/gcc/i686-pc-cygwin/4.9.2/libgfortran.a(open.o)
 .bss           0x01a57540        0x0 /usr/lib/gcc/i686-pc-cygwin/4.9.2/libgfortran.a(transfer.o)
 .bss           0x01a57540        0x0 /usr/lib/gcc/i686-pc-cygwin/4.9.2/libgfortran.a(unit.o)
 .bss           0x01a57540        0x0 /usr/lib/gcc/i686-pc-cygwin/4.9.2/libgfortran.a(unix.o)
 .bss           0x01a57540        0x0 /usr/lib/gcc/i686-pc-cygwin/4.9.2/libgfortran.a(write.o)
 .bss           0x01a57540        0x0 /usr/lib/gcc/i686-pc-cygwin/4.9.2/libgfortran.a(fbuf.o)
 .bss           0x01a57540        0x0 /usr/lib/gcc/i686-pc-cygwin/4.9.2/libgfortran.a(args.o)
 .bss           0x01a57540        0x0 /usr/lib/gcc/i686-pc-cygwin/4.9.2/libgfortran.a(chdir.o)
 .bss           0x01a57540        0x0 /usr/lib/gcc/i686-pc-cygwin/4.9.2/libgfortran.a(date_and_time.o)
 .bss           0x01a57540        0x0 /usr/lib/gcc/i686-pc-cygwin/4.9.2/libgfortran.a(string_intrinsics.o)
 .bss           0x01a57540        0x0 /usr/lib/gcc/i686-pc-cygwin/4.9.2/libgfortran.a(random.o)
 .bss           0x01a57540        0x0 /usr/lib/gcc/i686-pc-cygwin/4.9.2/libgfortran.a(backtrace.o)
 .bss           0x01a57540        0x0 /usr/lib/gcc/i686-pc-cygwin/4.9.2/libgfortran.a(fpu.o)
 .bss           0x01a57540        0x0 /usr/lib/gcc/i686-pc-cygwin/4.9.2/libgfortran.a(format.o)
 .bss           0x01a57540        0x0 /usr/lib/gcc/i686-pc-cygwin/4.9.2/libgfortran.a(list_read.o)
 .bss           0x01a57540        0x0 /usr/lib/gcc/i686-pc-cygwin/4.9.2/libgfortran.a(read.o)
 .bss           0x01a57540        0x0 /usr/lib/gcc/i686-pc-cygwin/4.9.2/libgfortran.a(size_from_kind.o)
 .bss           0x01a57540        0x0 /usr/lib/gcc/i686-pc-cygwin/4.9.2/libgcc.a(_chkstk_ms.o)
 .bss           0x01a57540        0x0 /usr/lib/gcc/i686-pc-cygwin/4.9.2/libgcc.a(_divdi3.o)
 .bss           0x01a57540        0x0 /usr/lib/gcc/i686-pc-cygwin/4.9.2/libgcc.a(_udivdi3.o)
 .bss           0x01a57540        0x0 /usr/lib/gcc/i686-pc-cygwin/4.9.2/libgcc.a(_umoddi3.o)
 .bss           0x01a57540        0x0 /usr/lib/gcc/i686-pc-cygwin/4.9.2/libgcc.a(addtf3.o)
 .bss           0x01a57540        0x0 /usr/lib/gcc/i686-pc-cygwin/4.9.2/libgcc.a(divtf3.o)
 .bss           0x01a57540        0x0 /usr/lib/gcc/i686-pc-cygwin/4.9.2/libgcc.a(eqtf2.o)
 .bss           0x01a57540        0x0 /usr/lib/gcc/i686-pc-cygwin/4.9.2/libgcc.a(getf2.o)
 .bss           0x01a57540        0x0 /usr/lib/gcc/i686-pc-cygwin/4.9.2/libgcc.a(letf2.o)
 .bss           0x01a57540        0x0 /usr/lib/gcc/i686-pc-cygwin/4.9.2/libgcc.a(multf3.o)
 .bss           0x01a57540        0x0 /usr/lib/gcc/i686-pc-cygwin/4.9.2/libgcc.a(subtf3.o)
 .bss           0x01a57540        0x0 /usr/lib/gcc/i686-pc-cygwin/4.9.2/libgcc.a(floatunditf.o)
 .bss           0x01a57540        0x0 /usr/lib/gcc/i686-pc-cygwin/4.9.2/libgcc.a(sfp-exceptions.o)
 .bss           0x01a57540       0x14 /usr/lib/gcc/i686-pc-cygwin/4.9.2/libgcc_eh.a(unwind-dw2.o)
 .bss           0x01a57554       0x14 /usr/lib/gcc/i686-pc-cygwin/4.9.2/libgcc_eh.a(unwind-dw2-fde.o)
 .bss           0x01a57568        0x0 /usr/lib/gcc/i686-pc-cygwin/4.9.2/libquadmath.a(isnanq.o)
 .bss           0x01a57568        0x0 /usr/lib/gcc/i686-pc-cygwin/4.9.2/libquadmath.a(signbitq.o)
 .bss           0x01a57568        0x0 /usr/lib/gcc/i686-pc-cygwin/4.9.2/libquadmath.a(finiteq.o)
 .bss           0x01a57568        0x0 /usr/lib/gcc/i686-pc-cygwin/4.9.2/../../../libcygwin.a(cygwin_crt0.o)
 .bss           0x01a57568        0x0 /usr/lib/gcc/i686-pc-cygwin/4.9.2/../../../libcygwin.a(premain0.o)
 .bss           0x01a57568        0x0 /usr/lib/gcc/i686-pc-cygwin/4.9.2/../../../libcygwin.a(premain1.o)
 .bss           0x01a57568        0x0 /usr/lib/gcc/i686-pc-cygwin/4.9.2/../../../libcygwin.a(premain2.o)
 .bss           0x01a57568        0x0 /usr/lib/gcc/i686-pc-cygwin/4.9.2/../../../libcygwin.a(premain3.o)
 .bss           0x01a57568        0x8 /usr/lib/gcc/i686-pc-cygwin/4.9.2/../../../libcygwin.a(_cygwin_crt0_common.o)
                0x01a57568                _fmode
                0x01a5756c                environ
 .bss           0x01a57570       0x14 /usr/lib/gcc/i686-pc-cygwin/4.9.2/../../../libcygwin.a(dll_entry.o)
                0x01a57570                __dynamically_loaded
 .bss           0x01a57584        0x0 /usr/lib/gcc/i686-pc-cygwin/4.9.2/../../../libcygwin.a(dll_main.o)
 .bss           0x01a57584        0x0 /usr/lib/gcc/i686-pc-cygwin/4.9.2/../../../libcygwin.a(pseudo-reloc-dummy.o)
 *fill*         0x01a57584       0x1c 
 .bss           0x01a575a0       0xc0 /usr/lib/gcc/i686-pc-cygwin/4.9.2/../../../libcygwin.a(cygwin_attach_dll.o)
 .bss           0x01a57660        0x0 /usr/lib/w32api/libkernel32.a(dwfms00581.o)
 .bss           0x01a57660        0x0 /usr/lib/w32api/libkernel32.a(dwfms00533.o)
 .bss           0x01a57660        0x0 /usr/lib/w32api/libkernel32.a(dwfmh.o)
 .bss           0x01a57660        0x0 /usr/lib/w32api/libkernel32.a(dwfmt.o)
 .bss           0x01a57660        0x0 /usr/lib/gcc/i686-pc-cygwin/4.9.2/libgcc.a(_ctors.o)
 .bss           0x01a57660        0x0 /usr/lib/gcc/i686-pc-cygwin/4.9.2/crtend.o
 *(COMMON)
 COMMON         0x01a57660       0x28 /usr/lib/gcc/i686-pc-cygwin/4.9.2/libgfortran.a(compile_options.o)
                0x01a57660                _gfortrani_compile_options
 *fill*         0x01a57688       0x18 
 COMMON         0x01a576a0       0x30 /usr/lib/gcc/i686-pc-cygwin/4.9.2/libgfortran.a(environ.o)
                0x01a576a0                _gfortrani_options
 COMMON         0x01a576d0        0x4 /usr/lib/gcc/i686-pc-cygwin/4.9.2/libgfortran.a(main.o)
                0x01a576d0                addr2line_path
 *fill*         0x01a576d4        0x4 
 COMMON         0x01a576d8        0xc /usr/lib/gcc/i686-pc-cygwin/4.9.2/libgfortran.a(unit.o)
                0x01a576d8                _gfortrani_max_offset
                0x01a576e0                _gfortrani_unit_root
 COMMON         0x01a576e4       0x10 /usr/lib/gcc/i686-pc-cygwin/4.9.2/libgcc.a(_ctors.o)
                0x01a576f4                __bss_end__ = .

.edata
 *(.edata)

/DISCARD/
 *(.debug$S)
 *(.debug$T)
 *(.debug$F)
 *(.drectve)
 *(.note.GNU-stack)
 *(.gnu.lto_*)

.idata          0x01a58000      0xa00
 SORT(*)(.idata$2)
 .idata$2       0x01a58000       0x14 /usr/lib/gcc/i686-pc-cygwin/4.9.2/../../../libcygwin.a(d000000.o)
                0x01a58000                _head_cygwin1_dll
 .idata$2       0x01a58014       0x14 /usr/lib/w32api/libkernel32.a(dwfmh.o)
                0x01a58014                _head_lib32_libkernel32_a
 SORT(*)(.idata$3)
                0x01a58028        0x4 LONG 0x0
                0x01a5802c        0x4 LONG 0x0
                0x01a58030        0x4 LONG 0x0
                0x01a58034        0x4 LONG 0x0
                0x01a58038        0x4 LONG 0x0
 SORT(*)(.idata$4)
 .idata$4       0x01a5803c        0x0 /usr/lib/gcc/i686-pc-cygwin/4.9.2/../../../libcygwin.a(d000000.o)
 .idata$4       0x01a5803c        0x4 /usr/lib/gcc/i686-pc-cygwin/4.9.2/../../../libcygwin.a(d000019.o)
 .idata$4       0x01a58040        0x4 /usr/lib/gcc/i686-pc-cygwin/4.9.2/../../../libcygwin.a(d000025.o)
 .idata$4       0x01a58044        0x4 /usr/lib/gcc/i686-pc-cygwin/4.9.2/../../../libcygwin.a(d000026.o)
 .idata$4       0x01a58048        0x4 /usr/lib/gcc/i686-pc-cygwin/4.9.2/../../../libcygwin.a(d000040.o)
 .idata$4       0x01a5804c        0x4 /usr/lib/gcc/i686-pc-cygwin/4.9.2/../../../libcygwin.a(d000070.o)
 .idata$4       0x01a58050        0x4 /usr/lib/gcc/i686-pc-cygwin/4.9.2/../../../libcygwin.a(d000077.o)
 .idata$4       0x01a58054        0x4 /usr/lib/gcc/i686-pc-cygwin/4.9.2/../../../libcygwin.a(d000200.o)
 .idata$4       0x01a58058        0x4 /usr/lib/gcc/i686-pc-cygwin/4.9.2/../../../libcygwin.a(d000224.o)
 .idata$4       0x01a5805c        0x4 /usr/lib/gcc/i686-pc-cygwin/4.9.2/../../../libcygwin.a(d000312.o)
 .idata$4       0x01a58060        0x4 /usr/lib/gcc/i686-pc-cygwin/4.9.2/../../../libcygwin.a(d000321.o)
 .idata$4       0x01a58064        0x4 /usr/lib/gcc/i686-pc-cygwin/4.9.2/../../../libcygwin.a(d000338.o)
 .idata$4       0x01a58068        0x4 /usr/lib/gcc/i686-pc-cygwin/4.9.2/../../../libcygwin.a(d000341.o)
 .idata$4       0x01a5806c        0x4 /usr/lib/gcc/i686-pc-cygwin/4.9.2/../../../libcygwin.a(d000343.o)
 .idata$4       0x01a58070        0x4 /usr/lib/gcc/i686-pc-cygwin/4.9.2/../../../libcygwin.a(d000372.o)
 .idata$4       0x01a58074        0x4 /usr/lib/gcc/i686-pc-cygwin/4.9.2/../../../libcygwin.a(d000385.o)
 .idata$4       0x01a58078        0x4 /usr/lib/gcc/i686-pc-cygwin/4.9.2/../../../libcygwin.a(d000444.o)
 .idata$4       0x01a5807c        0x4 /usr/lib/gcc/i686-pc-cygwin/4.9.2/../../../libcygwin.a(d000479.o)
 .idata$4       0x01a58080        0x4 /usr/lib/gcc/i686-pc-cygwin/4.9.2/../../../libcygwin.a(d000582.o)
 .idata$4       0x01a58084        0x4 /usr/lib/gcc/i686-pc-cygwin/4.9.2/../../../libcygwin.a(d000682.o)
 .idata$4       0x01a58088        0x4 /usr/lib/gcc/i686-pc-cygwin/4.9.2/../../../libcygwin.a(d000686.o)
 .idata$4       0x01a5808c        0x4 /usr/lib/gcc/i686-pc-cygwin/4.9.2/../../../libcygwin.a(d000737.o)
 .idata$4       0x01a58090        0x4 /usr/lib/gcc/i686-pc-cygwin/4.9.2/../../../libcygwin.a(d000755.o)
 .idata$4       0x01a58094        0x4 /usr/lib/gcc/i686-pc-cygwin/4.9.2/../../../libcygwin.a(d000783.o)
 .idata$4       0x01a58098        0x4 /usr/lib/gcc/i686-pc-cygwin/4.9.2/../../../libcygwin.a(d000801.o)
 .idata$4       0x01a5809c        0x4 /usr/lib/gcc/i686-pc-cygwin/4.9.2/../../../libcygwin.a(d000858.o)
 .idata$4       0x01a580a0        0x4 /usr/lib/gcc/i686-pc-cygwin/4.9.2/../../../libcygwin.a(d000860.o)
 .idata$4       0x01a580a4        0x4 /usr/lib/gcc/i686-pc-cygwin/4.9.2/../../../libcygwin.a(d000881.o)
 .idata$4       0x01a580a8        0x4 /usr/lib/gcc/i686-pc-cygwin/4.9.2/../../../libcygwin.a(d000893.o)
 .idata$4       0x01a580ac        0x4 /usr/lib/gcc/i686-pc-cygwin/4.9.2/../../../libcygwin.a(d000894.o)
 .idata$4       0x01a580b0        0x4 /usr/lib/gcc/i686-pc-cygwin/4.9.2/../../../libcygwin.a(d000932.o)
 .idata$4       0x01a580b4        0x4 /usr/lib/gcc/i686-pc-cygwin/4.9.2/../../../libcygwin.a(d000935.o)
 .idata$4       0x01a580b8        0x4 /usr/lib/gcc/i686-pc-cygwin/4.9.2/../../../libcygwin.a(d000936.o)
 .idata$4       0x01a580bc        0x4 /usr/lib/gcc/i686-pc-cygwin/4.9.2/../../../libcygwin.a(d000986.o)
 .idata$4       0x01a580c0        0x4 /usr/lib/gcc/i686-pc-cygwin/4.9.2/../../../libcygwin.a(d001018.o)
 .idata$4       0x01a580c4        0x4 /usr/lib/gcc/i686-pc-cygwin/4.9.2/../../../libcygwin.a(d001023.o)
 .idata$4       0x01a580c8        0x4 /usr/lib/gcc/i686-pc-cygwin/4.9.2/../../../libcygwin.a(d001038.o)
 .idata$4       0x01a580cc        0x4 /usr/lib/gcc/i686-pc-cygwin/4.9.2/../../../libcygwin.a(d001051.o)
 .idata$4       0x01a580d0        0x4 /usr/lib/gcc/i686-pc-cygwin/4.9.2/../../../libcygwin.a(d001060.o)
 .idata$4       0x01a580d4        0x4 /usr/lib/gcc/i686-pc-cygwin/4.9.2/../../../libcygwin.a(d001099.o)
 .idata$4       0x01a580d8        0x4 /usr/lib/gcc/i686-pc-cygwin/4.9.2/../../../libcygwin.a(d001103.o)
 .idata$4       0x01a580dc        0x4 /usr/lib/gcc/i686-pc-cygwin/4.9.2/../../../libcygwin.a(d001104.o)
 .idata$4       0x01a580e0        0x4 /usr/lib/gcc/i686-pc-cygwin/4.9.2/../../../libcygwin.a(d001105.o)
 .idata$4       0x01a580e4        0x4 /usr/lib/gcc/i686-pc-cygwin/4.9.2/../../../libcygwin.a(d001106.o)
 .idata$4       0x01a580e8        0x4 /usr/lib/gcc/i686-pc-cygwin/4.9.2/../../../libcygwin.a(d001161.o)
 .idata$4       0x01a580ec        0x4 /usr/lib/gcc/i686-pc-cygwin/4.9.2/../../../libcygwin.a(d001162.o)
 .idata$4       0x01a580f0        0x4 /usr/lib/gcc/i686-pc-cygwin/4.9.2/../../../libcygwin.a(d001181.o)
 .idata$4       0x01a580f4        0x4 /usr/lib/gcc/i686-pc-cygwin/4.9.2/../../../libcygwin.a(d001227.o)
 .idata$4       0x01a580f8        0x4 /usr/lib/gcc/i686-pc-cygwin/4.9.2/../../../libcygwin.a(d001292.o)
 .idata$4       0x01a580fc        0x4 /usr/lib/gcc/i686-pc-cygwin/4.9.2/../../../libcygwin.a(d001294.o)
 .idata$4       0x01a58100        0x4 /usr/lib/gcc/i686-pc-cygwin/4.9.2/../../../libcygwin.a(d001317.o)
 .idata$4       0x01a58104        0x4 /usr/lib/gcc/i686-pc-cygwin/4.9.2/../../../libcygwin.a(d001323.o)
 .idata$4       0x01a58108        0x4 /usr/lib/gcc/i686-pc-cygwin/4.9.2/../../../libcygwin.a(d001340.o)
 .idata$4       0x01a5810c        0x4 /usr/lib/gcc/i686-pc-cygwin/4.9.2/../../../libcygwin.a(d001341.o)
 .idata$4       0x01a58110        0x4 /usr/lib/gcc/i686-pc-cygwin/4.9.2/../../../libcygwin.a(d001343.o)
 .idata$4       0x01a58114        0x4 /usr/lib/gcc/i686-pc-cygwin/4.9.2/../../../libcygwin.a(d001346.o)
 .idata$4       0x01a58118        0x4 /usr/lib/gcc/i686-pc-cygwin/4.9.2/../../../libcygwin.a(d001354.o)
 .idata$4       0x01a5811c        0x4 /usr/lib/gcc/i686-pc-cygwin/4.9.2/../../../libcygwin.a(d001398.o)
 .idata$4       0x01a58120        0x4 /usr/lib/gcc/i686-pc-cygwin/4.9.2/../../../libcygwin.a(d001414.o)
 .idata$4       0x01a58124        0x4 /usr/lib/gcc/i686-pc-cygwin/4.9.2/../../../libcygwin.a(d001421.o)
 .idata$4       0x01a58128        0x4 /usr/lib/gcc/i686-pc-cygwin/4.9.2/../../../libcygwin.a(d001448.o)
 .idata$4       0x01a5812c        0x4 /usr/lib/gcc/i686-pc-cygwin/4.9.2/../../../libcygwin.a(d001509.o)
 .idata$4       0x01a58130        0x4 /usr/lib/gcc/i686-pc-cygwin/4.9.2/../../../libcygwin.a(d001512.o)
 .idata$4       0x01a58134        0x4 /usr/lib/gcc/i686-pc-cygwin/4.9.2/../../../libcygwin.a(d001514.o)
 .idata$4       0x01a58138        0x4 /usr/lib/gcc/i686-pc-cygwin/4.9.2/../../../libcygwin.a(d001515.o)
 .idata$4       0x01a5813c        0x4 /usr/lib/gcc/i686-pc-cygwin/4.9.2/../../../libcygwin.a(d001526.o)
 .idata$4       0x01a58140        0x4 /usr/lib/gcc/i686-pc-cygwin/4.9.2/../../../libcygwin.a(d001574.o)
 .idata$4       0x01a58144        0x4 /usr/lib/gcc/i686-pc-cygwin/4.9.2/../../../libcygwin.a(d001581.o)
 .idata$4       0x01a58148        0x4 /usr/lib/gcc/i686-pc-cygwin/4.9.2/../../../libcygwin.a(d001584.o)
 .idata$4       0x01a5814c        0x4 /usr/lib/gcc/i686-pc-cygwin/4.9.2/../../../libcygwin.a(d001587.o)
 .idata$4       0x01a58150        0x4 /usr/lib/gcc/i686-pc-cygwin/4.9.2/../../../libcygwin.a(d001737.o)
 .idata$4       0x01a58154        0x4 /usr/lib/gcc/i686-pc-cygwin/4.9.2/../../../libcygwin.a(d001757.o)
 .idata$4       0x01a58158        0x4 /usr/lib/gcc/i686-pc-cygwin/4.9.2/../../../libcygwin.a(d001777.o)
 .idata$4       0x01a5815c        0x4 /usr/lib/gcc/i686-pc-cygwin/4.9.2/../../../libcygwin.a(d001786.o)
 .idata$4       0x01a58160        0x4 /usr/lib/gcc/i686-pc-cygwin/4.9.2/../../../libcygwin.a(d001788.o)
 .idata$4       0x01a58164        0x4 /usr/lib/gcc/i686-pc-cygwin/4.9.2/../../../libcygwin.a(d001792.o)
 .idata$4       0x01a58168        0x4 /usr/lib/gcc/i686-pc-cygwin/4.9.2/../../../libcygwin.a(d001794.o)
 .idata$4       0x01a5816c        0x4 /usr/lib/gcc/i686-pc-cygwin/4.9.2/../../../libcygwin.a(d001799.o)
 .idata$4       0x01a58170        0x4 /usr/lib/gcc/i686-pc-cygwin/4.9.2/../../../libcygwin.a(d001801.o)
 .idata$4       0x01a58174        0x4 /usr/lib/gcc/i686-pc-cygwin/4.9.2/../../../libcygwin.a(d001803.o)
 .idata$4       0x01a58178        0x4 /usr/lib/gcc/i686-pc-cygwin/4.9.2/../../../libcygwin.a(d001814.o)
 .idata$4       0x01a5817c        0x4 /usr/lib/gcc/i686-pc-cygwin/4.9.2/../../../libcygwin.a(d001816.o)
 .idata$4       0x01a58180        0x4 /usr/lib/gcc/i686-pc-cygwin/4.9.2/../../../libcygwin.a(d001819.o)
 .idata$4       0x01a58184        0x4 /usr/lib/gcc/i686-pc-cygwin/4.9.2/../../../libcygwin.a(d001821.o)
 .idata$4       0x01a58188        0x4 /usr/lib/gcc/i686-pc-cygwin/4.9.2/../../../libcygwin.a(d001863.o)
 .idata$4       0x01a5818c        0x4 /usr/lib/gcc/i686-pc-cygwin/4.9.2/../../../libcygwin.a(d001875.o)
 .idata$4       0x01a58190        0x4 /usr/lib/gcc/i686-pc-cygwin/4.9.2/../../../libcygwin.a(d001876.o)
 .idata$4       0x01a58194        0x4 /usr/lib/gcc/i686-pc-cygwin/4.9.2/../../../libcygwin.a(d001885.o)
 .idata$4       0x01a58198        0x4 /usr/lib/gcc/i686-pc-cygwin/4.9.2/../../../libcygwin.a(d001890.o)
 .idata$4       0x01a5819c        0x4 /usr/lib/gcc/i686-pc-cygwin/4.9.2/../../../libcygwin.a(d001895.o)
 .idata$4       0x01a581a0        0x4 /usr/lib/gcc/i686-pc-cygwin/4.9.2/../../../libcygwin.a(d001925.o)
 .idata$4       0x01a581a4        0x4 /usr/lib/gcc/i686-pc-cygwin/4.9.2/../../../libcygwin.a(d001936.o)
 .idata$4       0x01a581a8        0x4 /usr/lib/gcc/i686-pc-cygwin/4.9.2/../../../libcygwin.a(d001994.o)
 .idata$4       0x01a581ac        0x4 /usr/lib/gcc/i686-pc-cygwin/4.9.2/../../../libcygwin.a(d002050.o)
 .idata$4       0x01a581b0        0x0 /usr/lib/w32api/libkernel32.a(dwfmh.o)
 .idata$4       0x01a581b0        0x4 /usr/lib/w32api/libkernel32.a(dwfms00533.o)
 .idata$4       0x01a581b4        0x4 /usr/lib/w32api/libkernel32.a(dwfms00581.o)
 .idata$4       0x01a581b8        0x4 /usr/lib/w32api/libkernel32.a(dwfmt.o)
                0x01a581bc                __IAT_start__ = .
 SORT(*)(.idata$5)
 .idata$5       0x01a581bc        0x0 /usr/lib/gcc/i686-pc-cygwin/4.9.2/../../../libcygwin.a(d000000.o)
 .idata$5       0x01a581bc        0x4 /usr/lib/gcc/i686-pc-cygwin/4.9.2/../../../libcygwin.a(d000019.o)
                0x01a581bc                _imp____assert_func
 .idata$5       0x01a581c0        0x4 /usr/lib/gcc/i686-pc-cygwin/4.9.2/../../../libcygwin.a(d000025.o)
                0x01a581c0                _imp____ctype_ptr__
 .idata$5       0x01a581c4        0x4 /usr/lib/gcc/i686-pc-cygwin/4.9.2/../../../libcygwin.a(d000026.o)
                0x01a581c4                _imp____cxa_atexit
 .idata$5       0x01a581c8        0x4 /usr/lib/gcc/i686-pc-cygwin/4.9.2/../../../libcygwin.a(d000040.o)
                0x01a581c8                _imp____errno
 .idata$5       0x01a581cc        0x4 /usr/lib/gcc/i686-pc-cygwin/4.9.2/../../../libcygwin.a(d000070.o)
                0x01a581cc                _imp____getreent
 .idata$5       0x01a581d0        0x4 /usr/lib/gcc/i686-pc-cygwin/4.9.2/../../../libcygwin.a(d000077.o)
                0x01a581d0                _imp____main
 .idata$5       0x01a581d4        0x4 /usr/lib/gcc/i686-pc-cygwin/4.9.2/../../../libcygwin.a(d000200.o)
                0x01a581d4                _imp___dll_crt0@0
 .idata$5       0x01a581d8        0x4 /usr/lib/gcc/i686-pc-cygwin/4.9.2/../../../libcygwin.a(d000224.o)
                0x01a581d8                _imp___exit
 .idata$5       0x01a581dc        0x4 /usr/lib/gcc/i686-pc-cygwin/4.9.2/../../../libcygwin.a(d000312.o)
                0x01a581dc                _imp___fstat64
 .idata$5       0x01a581e0        0x4 /usr/lib/gcc/i686-pc-cygwin/4.9.2/../../../libcygwin.a(d000321.o)
                0x01a581e0                _imp___ftruncate64
 .idata$5       0x01a581e4        0x4 /usr/lib/gcc/i686-pc-cygwin/4.9.2/../../../libcygwin.a(d000338.o)
                0x01a581e4                _imp___getegid32
 .idata$5       0x01a581e8        0x4 /usr/lib/gcc/i686-pc-cygwin/4.9.2/../../../libcygwin.a(d000341.o)
                0x01a581e8                _imp___geteuid32
 .idata$5       0x01a581ec        0x4 /usr/lib/gcc/i686-pc-cygwin/4.9.2/../../../libcygwin.a(d000343.o)
                0x01a581ec                _imp___getgid32
 .idata$5       0x01a581f0        0x4 /usr/lib/gcc/i686-pc-cygwin/4.9.2/../../../libcygwin.a(d000372.o)
                0x01a581f0                _imp___getuid32
 .idata$5       0x01a581f4        0x4 /usr/lib/gcc/i686-pc-cygwin/4.9.2/../../../libcygwin.a(d000385.o)
                0x01a581f4                _imp___impure_ptr
 .idata$5       0x01a581f8        0x4 /usr/lib/gcc/i686-pc-cygwin/4.9.2/../../../libcygwin.a(d000444.o)
                0x01a581f8                _imp___lseek64
 .idata$5       0x01a581fc        0x4 /usr/lib/gcc/i686-pc-cygwin/4.9.2/../../../libcygwin.a(d000479.o)
                0x01a581fc                _imp___open64
 .idata$5       0x01a58200        0x4 /usr/lib/gcc/i686-pc-cygwin/4.9.2/../../../libcygwin.a(d000582.o)
                0x01a58200                _imp___stat64
 .idata$5       0x01a58204        0x4 /usr/lib/gcc/i686-pc-cygwin/4.9.2/../../../libcygwin.a(d000682.o)
                0x01a58204                _imp__abort
 .idata$5       0x01a58208        0x4 /usr/lib/gcc/i686-pc-cygwin/4.9.2/../../../libcygwin.a(d000686.o)
                0x01a58208                _imp__access
 .idata$5       0x01a5820c        0x4 /usr/lib/gcc/i686-pc-cygwin/4.9.2/../../../libcygwin.a(d000737.o)
                0x01a5820c                _imp__atoi
 .idata$5       0x01a58210        0x4 /usr/lib/gcc/i686-pc-cygwin/4.9.2/../../../libcygwin.a(d000755.o)
                0x01a58210                _imp__calloc
 .idata$5       0x01a58214        0x4 /usr/lib/gcc/i686-pc-cygwin/4.9.2/../../../libcygwin.a(d000783.o)
                0x01a58214                _imp__chdir
 .idata$5       0x01a58218        0x4 /usr/lib/gcc/i686-pc-cygwin/4.9.2/../../../libcygwin.a(d000801.o)
                0x01a58218                _imp__close
 .idata$5       0x01a5821c        0x4 /usr/lib/gcc/i686-pc-cygwin/4.9.2/../../../libcygwin.a(d000858.o)
                0x01a5821c                _imp__cygwin_detach_dll
 .idata$5       0x01a58220        0x4 /usr/lib/gcc/i686-pc-cygwin/4.9.2/../../../libcygwin.a(d000860.o)
                0x01a58220                _imp__cygwin_internal
 .idata$5       0x01a58224        0x4 /usr/lib/gcc/i686-pc-cygwin/4.9.2/../../../libcygwin.a(d000881.o)
                0x01a58224                _imp__dll_dllcrt0
 .idata$5       0x01a58228        0x4 /usr/lib/gcc/i686-pc-cygwin/4.9.2/../../../libcygwin.a(d000893.o)
                0x01a58228                _imp__dup
 .idata$5       0x01a5822c        0x4 /usr/lib/gcc/i686-pc-cygwin/4.9.2/../../../libcygwin.a(d000894.o)
                0x01a5822c                _imp__dup2
 .idata$5       0x01a58230        0x4 /usr/lib/gcc/i686-pc-cygwin/4.9.2/../../../libcygwin.a(d000932.o)
                0x01a58230                _imp__execve
 .idata$5       0x01a58234        0x4 /usr/lib/gcc/i686-pc-cygwin/4.9.2/../../../libcygwin.a(d000935.o)
                0x01a58234                _imp__exit
 .idata$5       0x01a58238        0x4 /usr/lib/gcc/i686-pc-cygwin/4.9.2/../../../libcygwin.a(d000936.o)
                0x01a58238                _imp__exp
 .idata$5       0x01a5823c        0x4 /usr/lib/gcc/i686-pc-cygwin/4.9.2/../../../libcygwin.a(d000986.o)
                0x01a5823c                _imp__fflush
 .idata$5       0x01a58240        0x4 /usr/lib/gcc/i686-pc-cygwin/4.9.2/../../../libcygwin.a(d001018.o)
                0x01a58240                _imp__fmod
 .idata$5       0x01a58244        0x4 /usr/lib/gcc/i686-pc-cygwin/4.9.2/../../../libcygwin.a(d001023.o)
                0x01a58244                _imp__fork
 .idata$5       0x01a58248        0x4 /usr/lib/gcc/i686-pc-cygwin/4.9.2/../../../libcygwin.a(d001038.o)
                0x01a58248                _imp__free
 .idata$5       0x01a5824c        0x4 /usr/lib/gcc/i686-pc-cygwin/4.9.2/../../../libcygwin.a(d001051.o)
                0x01a5824c                _imp__fstat
 .idata$5       0x01a58250        0x4 /usr/lib/gcc/i686-pc-cygwin/4.9.2/../../../libcygwin.a(d001060.o)
                0x01a58250                _imp__ftruncate
 .idata$5       0x01a58254        0x4 /usr/lib/gcc/i686-pc-cygwin/4.9.2/../../../libcygwin.a(d001099.o)
                0x01a58254                _imp__getcwd
 .idata$5       0x01a58258        0x4 /usr/lib/gcc/i686-pc-cygwin/4.9.2/../../../libcygwin.a(d001103.o)
                0x01a58258                _imp__getegid
 .idata$5       0x01a5825c        0x4 /usr/lib/gcc/i686-pc-cygwin/4.9.2/../../../libcygwin.a(d001104.o)
                0x01a5825c                _imp__getenv
 .idata$5       0x01a58260        0x4 /usr/lib/gcc/i686-pc-cygwin/4.9.2/../../../libcygwin.a(d001105.o)
                0x01a58260                _imp__geteuid
 .idata$5       0x01a58264        0x4 /usr/lib/gcc/i686-pc-cygwin/4.9.2/../../../libcygwin.a(d001106.o)
                0x01a58264                _imp__getgid
 .idata$5       0x01a58268        0x4 /usr/lib/gcc/i686-pc-cygwin/4.9.2/../../../libcygwin.a(d001161.o)
                0x01a58268                _imp__gettimeofday
 .idata$5       0x01a5826c        0x4 /usr/lib/gcc/i686-pc-cygwin/4.9.2/../../../libcygwin.a(d001162.o)
                0x01a5826c                _imp__getuid
 .idata$5       0x01a58270        0x4 /usr/lib/gcc/i686-pc-cygwin/4.9.2/../../../libcygwin.a(d001181.o)
                0x01a58270                _imp__gmtime_r
 .idata$5       0x01a58274        0x4 /usr/lib/gcc/i686-pc-cygwin/4.9.2/../../../libcygwin.a(d001227.o)
                0x01a58274                _imp__isatty
 .idata$5       0x01a58278        0x4 /usr/lib/gcc/i686-pc-cygwin/4.9.2/../../../libcygwin.a(d001292.o)
                0x01a58278                _imp__localtime_r
 .idata$5       0x01a5827c        0x4 /usr/lib/gcc/i686-pc-cygwin/4.9.2/../../../libcygwin.a(d001294.o)
                0x01a5827c                _imp__log
 .idata$5       0x01a58280        0x4 /usr/lib/gcc/i686-pc-cygwin/4.9.2/../../../libcygwin.a(d001317.o)
                0x01a58280                _imp__lseek
 .idata$5       0x01a58284        0x4 /usr/lib/gcc/i686-pc-cygwin/4.9.2/../../../libcygwin.a(d001323.o)
                0x01a58284                _imp__malloc
 .idata$5       0x01a58288        0x4 /usr/lib/gcc/i686-pc-cygwin/4.9.2/../../../libcygwin.a(d001340.o)
                0x01a58288                _imp__memcmp
 .idata$5       0x01a5828c        0x4 /usr/lib/gcc/i686-pc-cygwin/4.9.2/../../../libcygwin.a(d001341.o)
                0x01a5828c                _imp__memcpy
 .idata$5       0x01a58290        0x4 /usr/lib/gcc/i686-pc-cygwin/4.9.2/../../../libcygwin.a(d001343.o)
                0x01a58290                _imp__memmove
 .idata$5       0x01a58294        0x4 /usr/lib/gcc/i686-pc-cygwin/4.9.2/../../../libcygwin.a(d001346.o)
                0x01a58294                _imp__memset
 .idata$5       0x01a58298        0x4 /usr/lib/gcc/i686-pc-cygwin/4.9.2/../../../libcygwin.a(d001354.o)
                0x01a58298                _imp__mkostemp
 .idata$5       0x01a5829c        0x4 /usr/lib/gcc/i686-pc-cygwin/4.9.2/../../../libcygwin.a(d001398.o)
                0x01a5829c                _imp__open
 .idata$5       0x01a582a0        0x4 /usr/lib/gcc/i686-pc-cygwin/4.9.2/../../../libcygwin.a(d001414.o)
                0x01a582a0                _imp__pipe
 .idata$5       0x01a582a4        0x4 /usr/lib/gcc/i686-pc-cygwin/4.9.2/../../../libcygwin.a(d001421.o)
                0x01a582a4                _imp__posix_memalign
 .idata$5       0x01a582a8        0x4 /usr/lib/gcc/i686-pc-cygwin/4.9.2/../../../libcygwin.a(d001448.o)
                0x01a582a8                _imp__pow
 .idata$5       0x01a582ac        0x4 /usr/lib/gcc/i686-pc-cygwin/4.9.2/../../../libcygwin.a(d001509.o)
                0x01a582ac                _imp__pthread_mutex_destroy
 .idata$5       0x01a582b0        0x4 /usr/lib/gcc/i686-pc-cygwin/4.9.2/../../../libcygwin.a(d001512.o)
                0x01a582b0                _imp__pthread_mutex_lock
 .idata$5       0x01a582b4        0x4 /usr/lib/gcc/i686-pc-cygwin/4.9.2/../../../libcygwin.a(d001514.o)
                0x01a582b4                _imp__pthread_mutex_trylock
 .idata$5       0x01a582b8        0x4 /usr/lib/gcc/i686-pc-cygwin/4.9.2/../../../libcygwin.a(d001515.o)
                0x01a582b8                _imp__pthread_mutex_unlock
 .idata$5       0x01a582bc        0x4 /usr/lib/gcc/i686-pc-cygwin/4.9.2/../../../libcygwin.a(d001526.o)
                0x01a582bc                _imp__pthread_once
 .idata$5       0x01a582c0        0x4 /usr/lib/gcc/i686-pc-cygwin/4.9.2/../../../libcygwin.a(d001574.o)
                0x01a582c0                _imp__raise
 .idata$5       0x01a582c4        0x4 /usr/lib/gcc/i686-pc-cygwin/4.9.2/../../../libcygwin.a(d001581.o)
                0x01a582c4                _imp__read
 .idata$5       0x01a582c8        0x4 /usr/lib/gcc/i686-pc-cygwin/4.9.2/../../../libcygwin.a(d001584.o)
                0x01a582c8                _imp__readlink
 .idata$5       0x01a582cc        0x4 /usr/lib/gcc/i686-pc-cygwin/4.9.2/../../../libcygwin.a(d001587.o)
                0x01a582cc                _imp__realloc
 .idata$5       0x01a582d0        0x4 /usr/lib/gcc/i686-pc-cygwin/4.9.2/../../../libcygwin.a(d001737.o)
                0x01a582d0                _imp__signal
 .idata$5       0x01a582d4        0x4 /usr/lib/gcc/i686-pc-cygwin/4.9.2/../../../libcygwin.a(d001757.o)
                0x01a582d4                _imp__snprintf
 .idata$5       0x01a582d8        0x4 /usr/lib/gcc/i686-pc-cygwin/4.9.2/../../../libcygwin.a(d001777.o)
                0x01a582d8                _imp__stat
 .idata$5       0x01a582dc        0x4 /usr/lib/gcc/i686-pc-cygwin/4.9.2/../../../libcygwin.a(d001786.o)
                0x01a582dc                _imp__strchr
 .idata$5       0x01a582e0        0x4 /usr/lib/gcc/i686-pc-cygwin/4.9.2/../../../libcygwin.a(d001788.o)
                0x01a582e0                _imp__strcmp
 .idata$5       0x01a582e4        0x4 /usr/lib/gcc/i686-pc-cygwin/4.9.2/../../../libcygwin.a(d001792.o)
                0x01a582e4                _imp__strdup
 .idata$5       0x01a582e8        0x4 /usr/lib/gcc/i686-pc-cygwin/4.9.2/../../../libcygwin.a(d001794.o)
                0x01a582e8                _imp__strerror_r
 .idata$5       0x01a582ec        0x4 /usr/lib/gcc/i686-pc-cygwin/4.9.2/../../../libcygwin.a(d001799.o)
                0x01a582ec                _imp__strlen
 .idata$5       0x01a582f0        0x4 /usr/lib/gcc/i686-pc-cygwin/4.9.2/../../../libcygwin.a(d001801.o)
                0x01a582f0                _imp__strncasecmp
 .idata$5       0x01a582f4        0x4 /usr/lib/gcc/i686-pc-cygwin/4.9.2/../../../libcygwin.a(d001803.o)
                0x01a582f4                _imp__strncmp
 .idata$5       0x01a582f8        0x4 /usr/lib/gcc/i686-pc-cygwin/4.9.2/../../../libcygwin.a(d001814.o)
                0x01a582f8                _imp__strtod
 .idata$5       0x01a582fc        0x4 /usr/lib/gcc/i686-pc-cygwin/4.9.2/../../../libcygwin.a(d001816.o)
                0x01a582fc                _imp__strtof
 .idata$5       0x01a58300        0x4 /usr/lib/gcc/i686-pc-cygwin/4.9.2/../../../libcygwin.a(d001819.o)
                0x01a58300                _imp__strtok_r
 .idata$5       0x01a58304        0x4 /usr/lib/gcc/i686-pc-cygwin/4.9.2/../../../libcygwin.a(d001821.o)
                0x01a58304                _imp__strtold
 .idata$5       0x01a58308        0x4 /usr/lib/gcc/i686-pc-cygwin/4.9.2/../../../libcygwin.a(d001863.o)
                0x01a58308                _imp__time
 .idata$5       0x01a5830c        0x4 /usr/lib/gcc/i686-pc-cygwin/4.9.2/../../../libcygwin.a(d001875.o)
                0x01a5830c                _imp__tolower
 .idata$5       0x01a58310        0x4 /usr/lib/gcc/i686-pc-cygwin/4.9.2/../../../libcygwin.a(d001876.o)
                0x01a58310                _imp__toupper
 .idata$5       0x01a58314        0x4 /usr/lib/gcc/i686-pc-cygwin/4.9.2/../../../libcygwin.a(d001885.o)
                0x01a58314                _imp__ttyname_r
 .idata$5       0x01a58318        0x4 /usr/lib/gcc/i686-pc-cygwin/4.9.2/../../../libcygwin.a(d001890.o)
                0x01a58318                _imp__umask
 .idata$5       0x01a5831c        0x4 /usr/lib/gcc/i686-pc-cygwin/4.9.2/../../../libcygwin.a(d001895.o)
                0x01a5831c                _imp__unlink
 .idata$5       0x01a58320        0x4 /usr/lib/gcc/i686-pc-cygwin/4.9.2/../../../libcygwin.a(d001925.o)
                0x01a58320                _imp__vsnprintf
 .idata$5       0x01a58324        0x4 /usr/lib/gcc/i686-pc-cygwin/4.9.2/../../../libcygwin.a(d001936.o)
                0x01a58324                _imp__wait
 .idata$5       0x01a58328        0x4 /usr/lib/gcc/i686-pc-cygwin/4.9.2/../../../libcygwin.a(d001994.o)
                0x01a58328                _imp__write
 .idata$5       0x01a5832c        0x4 /usr/lib/gcc/i686-pc-cygwin/4.9.2/../../../libcygwin.a(d002050.o)
 .idata$5       0x01a58330        0x0 /usr/lib/w32api/libkernel32.a(dwfmh.o)
 .idata$5       0x01a58330        0x4 /usr/lib/w32api/libkernel32.a(dwfms00533.o)
                0x01a58330                _imp__GetModuleHandleA@4
 .idata$5       0x01a58334        0x4 /usr/lib/w32api/libkernel32.a(dwfms00581.o)
                0x01a58334                _imp__GetProcAddress@8
 .idata$5       0x01a58338        0x4 /usr/lib/w32api/libkernel32.a(dwfmt.o)
                0x01a5833c                __IAT_end__ = .
 SORT(*)(.idata$6)
 .idata$6       0x01a5833c       0x10 /usr/lib/gcc/i686-pc-cygwin/4.9.2/../../../libcygwin.a(d000019.o)
 .idata$6       0x01a5834c       0x10 /usr/lib/gcc/i686-pc-cygwin/4.9.2/../../../libcygwin.a(d000025.o)
                0x01a5834c                _nm____ctype_ptr__
 .idata$6       0x01a5835c       0x10 /usr/lib/gcc/i686-pc-cygwin/4.9.2/../../../libcygwin.a(d000026.o)
 .idata$6       0x01a5836c        0xc /usr/lib/gcc/i686-pc-cygwin/4.9.2/../../../libcygwin.a(d000040.o)
 .idata$6       0x01a58378       0x10 /usr/lib/gcc/i686-pc-cygwin/4.9.2/../../../libcygwin.a(d000070.o)
 .idata$6       0x01a58388        0xc /usr/lib/gcc/i686-pc-cygwin/4.9.2/../../../libcygwin.a(d000077.o)
 .idata$6       0x01a58394       0x10 /usr/lib/gcc/i686-pc-cygwin/4.9.2/../../../libcygwin.a(d000200.o)
 .idata$6       0x01a583a4        0x8 /usr/lib/gcc/i686-pc-cygwin/4.9.2/../../../libcygwin.a(d000224.o)
 .idata$6       0x01a583ac        0xc /usr/lib/gcc/i686-pc-cygwin/4.9.2/../../../libcygwin.a(d000312.o)
 .idata$6       0x01a583b8       0x10 /usr/lib/gcc/i686-pc-cygwin/4.9.2/../../../libcygwin.a(d000321.o)
 .idata$6       0x01a583c8       0x10 /usr/lib/gcc/i686-pc-cygwin/4.9.2/../../../libcygwin.a(d000338.o)
 .idata$6       0x01a583d8       0x10 /usr/lib/gcc/i686-pc-cygwin/4.9.2/../../../libcygwin.a(d000341.o)
 .idata$6       0x01a583e8        0xc /usr/lib/gcc/i686-pc-cygwin/4.9.2/../../../libcygwin.a(d000343.o)
 .idata$6       0x01a583f4        0xc /usr/lib/gcc/i686-pc-cygwin/4.9.2/../../../libcygwin.a(d000372.o)
 .idata$6       0x01a58400       0x10 /usr/lib/gcc/i686-pc-cygwin/4.9.2/../../../libcygwin.a(d000385.o)
                0x01a58400                _nm___impure_ptr
 .idata$6       0x01a58410        0xc /usr/lib/gcc/i686-pc-cygwin/4.9.2/../../../libcygwin.a(d000444.o)
 .idata$6       0x01a5841c        0xc /usr/lib/gcc/i686-pc-cygwin/4.9.2/../../../libcygwin.a(d000479.o)
 .idata$6       0x01a58428        0xc /usr/lib/gcc/i686-pc-cygwin/4.9.2/../../../libcygwin.a(d000582.o)
 .idata$6       0x01a58434        0x8 /usr/lib/gcc/i686-pc-cygwin/4.9.2/../../../libcygwin.a(d000682.o)
 .idata$6       0x01a5843c        0xc /usr/lib/gcc/i686-pc-cygwin/4.9.2/../../../libcygwin.a(d000686.o)
 .idata$6       0x01a58448        0x8 /usr/lib/gcc/i686-pc-cygwin/4.9.2/../../../libcygwin.a(d000737.o)
 .idata$6       0x01a58450        0xc /usr/lib/gcc/i686-pc-cygwin/4.9.2/../../../libcygwin.a(d000755.o)
 .idata$6       0x01a5845c        0x8 /usr/lib/gcc/i686-pc-cygwin/4.9.2/../../../libcygwin.a(d000783.o)
 .idata$6       0x01a58464        0x8 /usr/lib/gcc/i686-pc-cygwin/4.9.2/../../../libcygwin.a(d000801.o)
 .idata$6       0x01a5846c       0x14 /usr/lib/gcc/i686-pc-cygwin/4.9.2/../../../libcygwin.a(d000858.o)
 .idata$6       0x01a58480       0x14 /usr/lib/gcc/i686-pc-cygwin/4.9.2/../../../libcygwin.a(d000860.o)
 .idata$6       0x01a58494       0x10 /usr/lib/gcc/i686-pc-cygwin/4.9.2/../../../libcygwin.a(d000881.o)
 .idata$6       0x01a584a4        0x8 /usr/lib/gcc/i686-pc-cygwin/4.9.2/../../../libcygwin.a(d000893.o)
 .idata$6       0x01a584ac        0x8 /usr/lib/gcc/i686-pc-cygwin/4.9.2/../../../libcygwin.a(d000894.o)
 .idata$6       0x01a584b4        0xc /usr/lib/gcc/i686-pc-cygwin/4.9.2/../../../libcygwin.a(d000932.o)
 .idata$6       0x01a584c0        0x8 /usr/lib/gcc/i686-pc-cygwin/4.9.2/../../../libcygwin.a(d000935.o)
 .idata$6       0x01a584c8        0x8 /usr/lib/gcc/i686-pc-cygwin/4.9.2/../../../libcygwin.a(d000936.o)
 .idata$6       0x01a584d0        0xc /usr/lib/gcc/i686-pc-cygwin/4.9.2/../../../libcygwin.a(d000986.o)
 .idata$6       0x01a584dc        0x8 /usr/lib/gcc/i686-pc-cygwin/4.9.2/../../../libcygwin.a(d001018.o)
 .idata$6       0x01a584e4        0x8 /usr/lib/gcc/i686-pc-cygwin/4.9.2/../../../libcygwin.a(d001023.o)
 .idata$6       0x01a584ec        0x8 /usr/lib/gcc/i686-pc-cygwin/4.9.2/../../../libcygwin.a(d001038.o)
 .idata$6       0x01a584f4        0x8 /usr/lib/gcc/i686-pc-cygwin/4.9.2/../../../libcygwin.a(d001051.o)
 .idata$6       0x01a584fc        0xc /usr/lib/gcc/i686-pc-cygwin/4.9.2/../../../libcygwin.a(d001060.o)
 .idata$6       0x01a58508        0xc /usr/lib/gcc/i686-pc-cygwin/4.9.2/../../../libcygwin.a(d001099.o)
 .idata$6       0x01a58514        0xc /usr/lib/gcc/i686-pc-cygwin/4.9.2/../../../libcygwin.a(d001103.o)
 .idata$6       0x01a58520        0xc /usr/lib/gcc/i686-pc-cygwin/4.9.2/../../../libcygwin.a(d001104.o)
 .idata$6       0x01a5852c        0xc /usr/lib/gcc/i686-pc-cygwin/4.9.2/../../../libcygwin.a(d001105.o)
 .idata$6       0x01a58538        0xc /usr/lib/gcc/i686-pc-cygwin/4.9.2/../../../libcygwin.a(d001106.o)
 .idata$6       0x01a58544       0x10 /usr/lib/gcc/i686-pc-cygwin/4.9.2/../../../libcygwin.a(d001161.o)
 .idata$6       0x01a58554        0xc /usr/lib/gcc/i686-pc-cygwin/4.9.2/../../../libcygwin.a(d001162.o)
 .idata$6       0x01a58560        0xc /usr/lib/gcc/i686-pc-cygwin/4.9.2/../../../libcygwin.a(d001181.o)
 .idata$6       0x01a5856c        0xc /usr/lib/gcc/i686-pc-cygwin/4.9.2/../../../libcygwin.a(d001227.o)
 .idata$6       0x01a58578       0x10 /usr/lib/gcc/i686-pc-cygwin/4.9.2/../../../libcygwin.a(d001292.o)
 .idata$6       0x01a58588        0x8 /usr/lib/gcc/i686-pc-cygwin/4.9.2/../../../libcygwin.a(d001294.o)
 .idata$6       0x01a58590        0x8 /usr/lib/gcc/i686-pc-cygwin/4.9.2/../../../libcygwin.a(d001317.o)
 .idata$6       0x01a58598        0xc /usr/lib/gcc/i686-pc-cygwin/4.9.2/../../../libcygwin.a(d001323.o)
 .idata$6       0x01a585a4        0xc /usr/lib/gcc/i686-pc-cygwin/4.9.2/../../../libcygwin.a(d001340.o)
 .idata$6       0x01a585b0        0xc /usr/lib/gcc/i686-pc-cygwin/4.9.2/../../../libcygwin.a(d001341.o)
 .idata$6       0x01a585bc        0xc /usr/lib/gcc/i686-pc-cygwin/4.9.2/../../../libcygwin.a(d001343.o)
 .idata$6       0x01a585c8        0xc /usr/lib/gcc/i686-pc-cygwin/4.9.2/../../../libcygwin.a(d001346.o)
 .idata$6       0x01a585d4        0xc /usr/lib/gcc/i686-pc-cygwin/4.9.2/../../../libcygwin.a(d001354.o)
 .idata$6       0x01a585e0        0x8 /usr/lib/gcc/i686-pc-cygwin/4.9.2/../../../libcygwin.a(d001398.o)
 .idata$6       0x01a585e8        0x8 /usr/lib/gcc/i686-pc-cygwin/4.9.2/../../../libcygwin.a(d001414.o)
 .idata$6       0x01a585f0       0x14 /usr/lib/gcc/i686-pc-cygwin/4.9.2/../../../libcygwin.a(d001421.o)
 .idata$6       0x01a58604        0x8 /usr/lib/gcc/i686-pc-cygwin/4.9.2/../../../libcygwin.a(d001448.o)
 .idata$6       0x01a5860c       0x18 /usr/lib/gcc/i686-pc-cygwin/4.9.2/../../../libcygwin.a(d001509.o)
 .idata$6       0x01a58624       0x18 /usr/lib/gcc/i686-pc-cygwin/4.9.2/../../../libcygwin.a(d001512.o)
 .idata$6       0x01a5863c       0x18 /usr/lib/gcc/i686-pc-cygwin/4.9.2/../../../libcygwin.a(d001514.o)
 .idata$6       0x01a58654       0x18 /usr/lib/gcc/i686-pc-cygwin/4.9.2/../../../libcygwin.a(d001515.o)
 .idata$6       0x01a5866c       0x10 /usr/lib/gcc/i686-pc-cygwin/4.9.2/../../../libcygwin.a(d001526.o)
 .idata$6       0x01a5867c        0x8 /usr/lib/gcc/i686-pc-cygwin/4.9.2/../../../libcygwin.a(d001574.o)
 .idata$6       0x01a58684        0x8 /usr/lib/gcc/i686-pc-cygwin/4.9.2/../../../libcygwin.a(d001581.o)
 .idata$6       0x01a5868c        0xc /usr/lib/gcc/i686-pc-cygwin/4.9.2/../../../libcygwin.a(d001584.o)
 .idata$6       0x01a58698        0xc /usr/lib/gcc/i686-pc-cygwin/4.9.2/../../../libcygwin.a(d001587.o)
 .idata$6       0x01a586a4        0xc /usr/lib/gcc/i686-pc-cygwin/4.9.2/../../../libcygwin.a(d001737.o)
 .idata$6       0x01a586b0        0xc /usr/lib/gcc/i686-pc-cygwin/4.9.2/../../../libcygwin.a(d001757.o)
 .idata$6       0x01a586bc        0x8 /usr/lib/gcc/i686-pc-cygwin/4.9.2/../../../libcygwin.a(d001777.o)
 .idata$6       0x01a586c4        0xc /usr/lib/gcc/i686-pc-cygwin/4.9.2/../../../libcygwin.a(d001786.o)
 .idata$6       0x01a586d0        0xc /usr/lib/gcc/i686-pc-cygwin/4.9.2/../../../libcygwin.a(d001788.o)
 .idata$6       0x01a586dc        0xc /usr/lib/gcc/i686-pc-cygwin/4.9.2/../../../libcygwin.a(d001792.o)
 .idata$6       0x01a586e8       0x10 /usr/lib/gcc/i686-pc-cygwin/4.9.2/../../../libcygwin.a(d001794.o)
 .idata$6       0x01a586f8        0xc /usr/lib/gcc/i686-pc-cygwin/4.9.2/../../../libcygwin.a(d001799.o)
 .idata$6       0x01a58704       0x10 /usr/lib/gcc/i686-pc-cygwin/4.9.2/../../../libcygwin.a(d001801.o)
 .idata$6       0x01a58714        0xc /usr/lib/gcc/i686-pc-cygwin/4.9.2/../../../libcygwin.a(d001803.o)
 .idata$6       0x01a58720        0xc /usr/lib/gcc/i686-pc-cygwin/4.9.2/../../../libcygwin.a(d001814.o)
 .idata$6       0x01a5872c        0xc /usr/lib/gcc/i686-pc-cygwin/4.9.2/../../../libcygwin.a(d001816.o)
 .idata$6       0x01a58738        0xc /usr/lib/gcc/i686-pc-cygwin/4.9.2/../../../libcygwin.a(d001819.o)
 .idata$6       0x01a58744        0xc /usr/lib/gcc/i686-pc-cygwin/4.9.2/../../../libcygwin.a(d001821.o)
 .idata$6       0x01a58750        0x8 /usr/lib/gcc/i686-pc-cygwin/4.9.2/../../../libcygwin.a(d001863.o)
 .idata$6       0x01a58758        0xc /usr/lib/gcc/i686-pc-cygwin/4.9.2/../../../libcygwin.a(d001875.o)
 .idata$6       0x01a58764        0xc /usr/lib/gcc/i686-pc-cygwin/4.9.2/../../../libcygwin.a(d001876.o)
 .idata$6       0x01a58770        0xc /usr/lib/gcc/i686-pc-cygwin/4.9.2/../../../libcygwin.a(d001885.o)
 .idata$6       0x01a5877c        0x8 /usr/lib/gcc/i686-pc-cygwin/4.9.2/../../../libcygwin.a(d001890.o)
 .idata$6       0x01a58784        0xc /usr/lib/gcc/i686-pc-cygwin/4.9.2/../../../libcygwin.a(d001895.o)
 .idata$6       0x01a58790        0xc /usr/lib/gcc/i686-pc-cygwin/4.9.2/../../../libcygwin.a(d001925.o)
 .idata$6       0x01a5879c        0x8 /usr/lib/gcc/i686-pc-cygwin/4.9.2/../../../libcygwin.a(d001936.o)
 .idata$6       0x01a587a4        0x8 /usr/lib/gcc/i686-pc-cygwin/4.9.2/../../../libcygwin.a(d001994.o)
 .idata$6       0x01a587ac       0x14 /usr/lib/w32api/libkernel32.a(dwfms00533.o)
 .idata$6       0x01a587c0       0x12 /usr/lib/w32api/libkernel32.a(dwfms00581.o)
 SORT(*)(.idata$7)
 *fill*         0x01a587d2        0x2 
 .idata$7       0x01a587d4        0x4 /usr/lib/gcc/i686-pc-cygwin/4.9.2/../../../libcygwin.a(d000019.o)
 .idata$7       0x01a587d8        0x4 /usr/lib/gcc/i686-pc-cygwin/4.9.2/../../../libcygwin.a(d000025.o)
 .idata$7       0x01a587dc        0x4 /usr/lib/gcc/i686-pc-cygwin/4.9.2/../../../libcygwin.a(d000026.o)
 .idata$7       0x01a587e0        0x4 /usr/lib/gcc/i686-pc-cygwin/4.9.2/../../../libcygwin.a(d000040.o)
 .idata$7       0x01a587e4        0x4 /usr/lib/gcc/i686-pc-cygwin/4.9.2/../../../libcygwin.a(d000070.o)
 .idata$7       0x01a587e8        0x4 /usr/lib/gcc/i686-pc-cygwin/4.9.2/../../../libcygwin.a(d000077.o)
 .idata$7       0x01a587ec        0x4 /usr/lib/gcc/i686-pc-cygwin/4.9.2/../../../libcygwin.a(d000200.o)
 .idata$7       0x01a587f0        0x4 /usr/lib/gcc/i686-pc-cygwin/4.9.2/../../../libcygwin.a(d000224.o)
 .idata$7       0x01a587f4        0x4 /usr/lib/gcc/i686-pc-cygwin/4.9.2/../../../libcygwin.a(d000312.o)
 .idata$7       0x01a587f8        0x4 /usr/lib/gcc/i686-pc-cygwin/4.9.2/../../../libcygwin.a(d000321.o)
 .idata$7       0x01a587fc        0x4 /usr/lib/gcc/i686-pc-cygwin/4.9.2/../../../libcygwin.a(d000338.o)
 .idata$7       0x01a58800        0x4 /usr/lib/gcc/i686-pc-cygwin/4.9.2/../../../libcygwin.a(d000341.o)
 .idata$7       0x01a58804        0x4 /usr/lib/gcc/i686-pc-cygwin/4.9.2/../../../libcygwin.a(d000343.o)
 .idata$7       0x01a58808        0x4 /usr/lib/gcc/i686-pc-cygwin/4.9.2/../../../libcygwin.a(d000372.o)
 .idata$7       0x01a5880c        0x4 /usr/lib/gcc/i686-pc-cygwin/4.9.2/../../../libcygwin.a(d000385.o)
 .idata$7       0x01a58810        0x4 /usr/lib/gcc/i686-pc-cygwin/4.9.2/../../../libcygwin.a(d000444.o)
 .idata$7       0x01a58814        0x4 /usr/lib/gcc/i686-pc-cygwin/4.9.2/../../../libcygwin.a(d000479.o)
 .idata$7       0x01a58818        0x4 /usr/lib/gcc/i686-pc-cygwin/4.9.2/../../../libcygwin.a(d000582.o)
 .idata$7       0x01a5881c        0x4 /usr/lib/gcc/i686-pc-cygwin/4.9.2/../../../libcygwin.a(d000682.o)
 .idata$7       0x01a58820        0x4 /usr/lib/gcc/i686-pc-cygwin/4.9.2/../../../libcygwin.a(d000686.o)
 .idata$7       0x01a58824        0x4 /usr/lib/gcc/i686-pc-cygwin/4.9.2/../../../libcygwin.a(d000737.o)
 .idata$7       0x01a58828        0x4 /usr/lib/gcc/i686-pc-cygwin/4.9.2/../../../libcygwin.a(d000755.o)
 .idata$7       0x01a5882c        0x4 /usr/lib/gcc/i686-pc-cygwin/4.9.2/../../../libcygwin.a(d000783.o)
 .idata$7       0x01a58830        0x4 /usr/lib/gcc/i686-pc-cygwin/4.9.2/../../../libcygwin.a(d000801.o)
 .idata$7       0x01a58834        0x4 /usr/lib/gcc/i686-pc-cygwin/4.9.2/../../../libcygwin.a(d000858.o)
 .idata$7       0x01a58838        0x4 /usr/lib/gcc/i686-pc-cygwin/4.9.2/../../../libcygwin.a(d000860.o)
 .idata$7       0x01a5883c        0x4 /usr/lib/gcc/i686-pc-cygwin/4.9.2/../../../libcygwin.a(d000881.o)
 .idata$7       0x01a58840        0x4 /usr/lib/gcc/i686-pc-cygwin/4.9.2/../../../libcygwin.a(d000893.o)
 .idata$7       0x01a58844        0x4 /usr/lib/gcc/i686-pc-cygwin/4.9.2/../../../libcygwin.a(d000894.o)
 .idata$7       0x01a58848        0x4 /usr/lib/gcc/i686-pc-cygwin/4.9.2/../../../libcygwin.a(d000932.o)
 .idata$7       0x01a5884c        0x4 /usr/lib/gcc/i686-pc-cygwin/4.9.2/../../../libcygwin.a(d000935.o)
 .idata$7       0x01a58850        0x4 /usr/lib/gcc/i686-pc-cygwin/4.9.2/../../../libcygwin.a(d000936.o)
 .idata$7       0x01a58854        0x4 /usr/lib/gcc/i686-pc-cygwin/4.9.2/../../../libcygwin.a(d000986.o)
 .idata$7       0x01a58858        0x4 /usr/lib/gcc/i686-pc-cygwin/4.9.2/../../../libcygwin.a(d001018.o)
 .idata$7       0x01a5885c        0x4 /usr/lib/gcc/i686-pc-cygwin/4.9.2/../../../libcygwin.a(d001023.o)
 .idata$7       0x01a58860        0x4 /usr/lib/gcc/i686-pc-cygwin/4.9.2/../../../libcygwin.a(d001038.o)
 .idata$7       0x01a58864        0x4 /usr/lib/gcc/i686-pc-cygwin/4.9.2/../../../libcygwin.a(d001051.o)
 .idata$7       0x01a58868        0x4 /usr/lib/gcc/i686-pc-cygwin/4.9.2/../../../libcygwin.a(d001060.o)
 .idata$7       0x01a5886c        0x4 /usr/lib/gcc/i686-pc-cygwin/4.9.2/../../../libcygwin.a(d001099.o)
 .idata$7       0x01a58870        0x4 /usr/lib/gcc/i686-pc-cygwin/4.9.2/../../../libcygwin.a(d001103.o)
 .idata$7       0x01a58874        0x4 /usr/lib/gcc/i686-pc-cygwin/4.9.2/../../../libcygwin.a(d001104.o)
 .idata$7       0x01a58878        0x4 /usr/lib/gcc/i686-pc-cygwin/4.9.2/../../../libcygwin.a(d001105.o)
 .idata$7       0x01a5887c        0x4 /usr/lib/gcc/i686-pc-cygwin/4.9.2/../../../libcygwin.a(d001106.o)
 .idata$7       0x01a58880        0x4 /usr/lib/gcc/i686-pc-cygwin/4.9.2/../../../libcygwin.a(d001161.o)
 .idata$7       0x01a58884        0x4 /usr/lib/gcc/i686-pc-cygwin/4.9.2/../../../libcygwin.a(d001162.o)
 .idata$7       0x01a58888        0x4 /usr/lib/gcc/i686-pc-cygwin/4.9.2/../../../libcygwin.a(d001181.o)
 .idata$7       0x01a5888c        0x4 /usr/lib/gcc/i686-pc-cygwin/4.9.2/../../../libcygwin.a(d001227.o)
 .idata$7       0x01a58890        0x4 /usr/lib/gcc/i686-pc-cygwin/4.9.2/../../../libcygwin.a(d001292.o)
 .idata$7       0x01a58894        0x4 /usr/lib/gcc/i686-pc-cygwin/4.9.2/../../../libcygwin.a(d001294.o)
 .idata$7       0x01a58898        0x4 /usr/lib/gcc/i686-pc-cygwin/4.9.2/../../../libcygwin.a(d001317.o)
 .idata$7       0x01a5889c        0x4 /usr/lib/gcc/i686-pc-cygwin/4.9.2/../../../libcygwin.a(d001323.o)
 .idata$7       0x01a588a0        0x4 /usr/lib/gcc/i686-pc-cygwin/4.9.2/../../../libcygwin.a(d001340.o)
 .idata$7       0x01a588a4        0x4 /usr/lib/gcc/i686-pc-cygwin/4.9.2/../../../libcygwin.a(d001341.o)
 .idata$7       0x01a588a8        0x4 /usr/lib/gcc/i686-pc-cygwin/4.9.2/../../../libcygwin.a(d001343.o)
 .idata$7       0x01a588ac        0x4 /usr/lib/gcc/i686-pc-cygwin/4.9.2/../../../libcygwin.a(d001346.o)
 .idata$7       0x01a588b0        0x4 /usr/lib/gcc/i686-pc-cygwin/4.9.2/../../../libcygwin.a(d001354.o)
 .idata$7       0x01a588b4        0x4 /usr/lib/gcc/i686-pc-cygwin/4.9.2/../../../libcygwin.a(d001398.o)
 .idata$7       0x01a588b8        0x4 /usr/lib/gcc/i686-pc-cygwin/4.9.2/../../../libcygwin.a(d001414.o)
 .idata$7       0x01a588bc        0x4 /usr/lib/gcc/i686-pc-cygwin/4.9.2/../../../libcygwin.a(d001421.o)
 .idata$7       0x01a588c0        0x4 /usr/lib/gcc/i686-pc-cygwin/4.9.2/../../../libcygwin.a(d001448.o)
 .idata$7       0x01a588c4        0x4 /usr/lib/gcc/i686-pc-cygwin/4.9.2/../../../libcygwin.a(d001509.o)
 .idata$7       0x01a588c8        0x4 /usr/lib/gcc/i686-pc-cygwin/4.9.2/../../../libcygwin.a(d001512.o)
 .idata$7       0x01a588cc        0x4 /usr/lib/gcc/i686-pc-cygwin/4.9.2/../../../libcygwin.a(d001514.o)
 .idata$7       0x01a588d0        0x4 /usr/lib/gcc/i686-pc-cygwin/4.9.2/../../../libcygwin.a(d001515.o)
 .idata$7       0x01a588d4        0x4 /usr/lib/gcc/i686-pc-cygwin/4.9.2/../../../libcygwin.a(d001526.o)
 .idata$7       0x01a588d8        0x4 /usr/lib/gcc/i686-pc-cygwin/4.9.2/../../../libcygwin.a(d001574.o)
 .idata$7       0x01a588dc        0x4 /usr/lib/gcc/i686-pc-cygwin/4.9.2/../../../libcygwin.a(d001581.o)
 .idata$7       0x01a588e0        0x4 /usr/lib/gcc/i686-pc-cygwin/4.9.2/../../../libcygwin.a(d001584.o)
 .idata$7       0x01a588e4        0x4 /usr/lib/gcc/i686-pc-cygwin/4.9.2/../../../libcygwin.a(d001587.o)
 .idata$7       0x01a588e8        0x4 /usr/lib/gcc/i686-pc-cygwin/4.9.2/../../../libcygwin.a(d001737.o)
 .idata$7       0x01a588ec        0x4 /usr/lib/gcc/i686-pc-cygwin/4.9.2/../../../libcygwin.a(d001757.o)
 .idata$7       0x01a588f0        0x4 /usr/lib/gcc/i686-pc-cygwin/4.9.2/../../../libcygwin.a(d001777.o)
 .idata$7       0x01a588f4        0x4 /usr/lib/gcc/i686-pc-cygwin/4.9.2/../../../libcygwin.a(d001786.o)
 .idata$7       0x01a588f8        0x4 /usr/lib/gcc/i686-pc-cygwin/4.9.2/../../../libcygwin.a(d001788.o)
 .idata$7       0x01a588fc        0x4 /usr/lib/gcc/i686-pc-cygwin/4.9.2/../../../libcygwin.a(d001792.o)
 .idata$7       0x01a58900        0x4 /usr/lib/gcc/i686-pc-cygwin/4.9.2/../../../libcygwin.a(d001794.o)
 .idata$7       0x01a58904        0x4 /usr/lib/gcc/i686-pc-cygwin/4.9.2/../../../libcygwin.a(d001799.o)
 .idata$7       0x01a58908        0x4 /usr/lib/gcc/i686-pc-cygwin/4.9.2/../../../libcygwin.a(d001801.o)
 .idata$7       0x01a5890c        0x4 /usr/lib/gcc/i686-pc-cygwin/4.9.2/../../../libcygwin.a(d001803.o)
 .idata$7       0x01a58910        0x4 /usr/lib/gcc/i686-pc-cygwin/4.9.2/../../../libcygwin.a(d001814.o)
 .idata$7       0x01a58914        0x4 /usr/lib/gcc/i686-pc-cygwin/4.9.2/../../../libcygwin.a(d001816.o)
 .idata$7       0x01a58918        0x4 /usr/lib/gcc/i686-pc-cygwin/4.9.2/../../../libcygwin.a(d001819.o)
 .idata$7       0x01a5891c        0x4 /usr/lib/gcc/i686-pc-cygwin/4.9.2/../../../libcygwin.a(d001821.o)
 .idata$7       0x01a58920        0x4 /usr/lib/gcc/i686-pc-cygwin/4.9.2/../../../libcygwin.a(d001863.o)
 .idata$7       0x01a58924        0x4 /usr/lib/gcc/i686-pc-cygwin/4.9.2/../../../libcygwin.a(d001875.o)
 .idata$7       0x01a58928        0x4 /usr/lib/gcc/i686-pc-cygwin/4.9.2/../../../libcygwin.a(d001876.o)
 .idata$7       0x01a5892c        0x4 /usr/lib/gcc/i686-pc-cygwin/4.9.2/../../../libcygwin.a(d001885.o)
 .idata$7       0x01a58930        0x4 /usr/lib/gcc/i686-pc-cygwin/4.9.2/../../../libcygwin.a(d001890.o)
 .idata$7       0x01a58934        0x4 /usr/lib/gcc/i686-pc-cygwin/4.9.2/../../../libcygwin.a(d001895.o)
 .idata$7       0x01a58938        0x4 /usr/lib/gcc/i686-pc-cygwin/4.9.2/../../../libcygwin.a(d001925.o)
 .idata$7       0x01a5893c        0x4 /usr/lib/gcc/i686-pc-cygwin/4.9.2/../../../libcygwin.a(d001936.o)
 .idata$7       0x01a58940        0x4 /usr/lib/gcc/i686-pc-cygwin/4.9.2/../../../libcygwin.a(d001994.o)
 .idata$7       0x01a58944        0xc /usr/lib/gcc/i686-pc-cygwin/4.9.2/../../../libcygwin.a(d002050.o)
                0x01a58944                cygwin1_dll_iname
 .idata$7       0x01a58950        0x4 /usr/lib/w32api/libkernel32.a(dwfms00533.o)
 .idata$7       0x01a58954        0x4 /usr/lib/w32api/libkernel32.a(dwfms00581.o)
 .idata$7       0x01a58958       0x10 /usr/lib/w32api/libkernel32.a(dwfmt.o)
                0x01a58958                _lib32_libkernel32_a_iname

.CRT            0x01a59000        0x0
                0x01a59000                ___crt_xc_start__ = .
 *(SORT(.CRT$XC*))
                0x01a59000                ___crt_xc_end__ = .
                0x01a59000                ___crt_xi_start__ = .
 *(SORT(.CRT$XI*))
                0x01a59000                ___crt_xi_end__ = .
                0x01a59000                ___crt_xl_start__ = .
 *(SORT(.CRT$XL*))
                0x01a59000                ___crt_xp_start__ = .
 *(SORT(.CRT$XP*))
                0x01a59000                ___crt_xp_end__ = .
                0x01a59000                ___crt_xt_start__ = .
 *(SORT(.CRT$XT*))
                0x01a59000                ___crt_xt_end__ = .

.tls            0x01a59000        0x0
                0x01a59000                ___tls_start__ = .
 *(.tls$AAA)
 *(.tls)
 *(.tls$)
 *(SORT(.tls$*))
 *(.tls$ZZZ)
                0x01a59000                ___tls_end__ = .

.endjunk        0x01a59000        0x0
                0x01a59000                PROVIDE (end, .)
                0x01a59000                PROVIDE (_end, .)
                0x01a59000                __end__ = .

.rsrc           0x01a59000      0x600
 *(.rsrc)
 .rsrc          0x01a59000      0x4e8 /usr/lib/gcc/i686-pc-cygwin/4.9.2/../../../default-manifest.o
 *(.rsrc$*)

.reloc
 *(.reloc)

.stab
 *(.stab)

.stabstr
 *(.stabstr)

.debug_aranges  0x01a5a000     0x1400
 *(.debug_aranges)
 .debug_aranges
                0x01a5a000       0x20 /usr/lib/gcc/i686-pc-cygwin/4.9.2/../../../crt0.o
 .debug_aranges
                0x01a5a020       0x28 obj/imploc.o
 .debug_aranges
                0x01a5a048       0x20 obj/io_list.o
 .debug_aranges
                0x01a5a068       0x20 obj/mensamod.o
 .debug_aranges
                0x01a5a088       0x20 obj/zcomm.o
 .debug_aranges
                0x01a5a0a8       0x20 obj/getoptm.o
 .debug_aranges
                0x01a5a0c8       0x20 obj/mlogit.o
 .debug_aranges
                0x01a5a0e8       0x20 obj/mpowit.o
 .debug_aranges
                0x01a5a108       0x20 obj/distribm.o
 .debug_aranges
                0x01a5a128       0x20 obj/lcomm.o
 .debug_aranges
                0x01a5a148       0x20 obj/control.o
 .debug_aranges
                0x01a5a168       0x20 obj/gener.o
 .debug_aranges
                0x01a5a188       0x20 obj/param.o
 .debug_aranges
                0x01a5a1a8       0x18 obj/lparc.o
 .debug_aranges
                0x01a5a1c0       0x20 obj/optionsm.o
 .debug_aranges
                0x01a5a1e0       0x20 obj/debugm.o
 .debug_aranges
                0x01a5a200       0x48 /usr/lib/gcc/i686-pc-cygwin/4.9.2/libgfortran.a(compile_options.o)
 .debug_aranges
                0x01a5a248       0xb0 /usr/lib/gcc/i686-pc-cygwin/4.9.2/libgfortran.a(environ.o)
 .debug_aranges
                0x01a5a2f8       0xa0 /usr/lib/gcc/i686-pc-cygwin/4.9.2/libgfortran.a(error.o)
 .debug_aranges
                0x01a5a398       0x58 /usr/lib/gcc/i686-pc-cygwin/4.9.2/libgfortran.a(main.o)
 .debug_aranges
                0x01a5a3f0       0x30 /usr/lib/gcc/i686-pc-cygwin/4.9.2/libgfortran.a(memory.o)
 .debug_aranges
                0x01a5a420       0x48 /usr/lib/gcc/i686-pc-cygwin/4.9.2/libgfortran.a(stop.o)
 .debug_aranges
                0x01a5a468       0x38 /usr/lib/gcc/i686-pc-cygwin/4.9.2/libgfortran.a(string.o)
 .debug_aranges
                0x01a5a4a0       0x20 /usr/lib/gcc/i686-pc-cygwin/4.9.2/libgfortran.a(close.o)
 .debug_aranges
                0x01a5a4c0       0x38 /usr/lib/gcc/i686-pc-cygwin/4.9.2/libgfortran.a(file_pos.o)
 .debug_aranges
                0x01a5a4f8       0x28 /usr/lib/gcc/i686-pc-cygwin/4.9.2/libgfortran.a(inquire.o)
 .debug_aranges
                0x01a5a520       0x28 /usr/lib/gcc/i686-pc-cygwin/4.9.2/libgfortran.a(lock.o)
 .debug_aranges
                0x01a5a548       0x38 /usr/lib/gcc/i686-pc-cygwin/4.9.2/libgfortran.a(open.o)
 .debug_aranges
                0x01a5a580      0x1c0 /usr/lib/gcc/i686-pc-cygwin/4.9.2/libgfortran.a(transfer.o)
 .debug_aranges
                0x01a5a740       0xb0 /usr/lib/gcc/i686-pc-cygwin/4.9.2/libgfortran.a(unit.o)
 .debug_aranges
                0x01a5a7f0      0x1f8 /usr/lib/gcc/i686-pc-cygwin/4.9.2/libgfortran.a(unix.o)
 .debug_aranges
                0x01a5a9e8      0x128 /usr/lib/gcc/i686-pc-cygwin/4.9.2/libgfortran.a(write.o)
 .debug_aranges
                0x01a5ab10       0x58 /usr/lib/gcc/i686-pc-cygwin/4.9.2/libgfortran.a(fbuf.o)
 .debug_aranges
                0x01a5ab68       0x50 /usr/lib/gcc/i686-pc-cygwin/4.9.2/libgfortran.a(args.o)
 .debug_aranges
                0x01a5abb8       0x38 /usr/lib/gcc/i686-pc-cygwin/4.9.2/libgfortran.a(chdir.o)
 .debug_aranges
                0x01a5abf0       0x88 /usr/lib/gcc/i686-pc-cygwin/4.9.2/libgfortran.a(date_and_time.o)
 .debug_aranges
                0x01a5ac78       0xc0 /usr/lib/gcc/i686-pc-cygwin/4.9.2/libgfortran.a(string_intrinsics.o)
 .debug_aranges
                0x01a5ad38       0x70 /usr/lib/gcc/i686-pc-cygwin/4.9.2/libgfortran.a(random.o)
 .debug_aranges
                0x01a5ada8       0x30 /usr/lib/gcc/i686-pc-cygwin/4.9.2/libgfortran.a(backtrace.o)
 .debug_aranges
                0x01a5add8       0x48 /usr/lib/gcc/i686-pc-cygwin/4.9.2/libgfortran.a(fpu.o)
 .debug_aranges
                0x01a5ae20       0x78 /usr/lib/gcc/i686-pc-cygwin/4.9.2/libgfortran.a(format.o)
 .debug_aranges
                0x01a5ae98       0xc8 /usr/lib/gcc/i686-pc-cygwin/4.9.2/libgfortran.a(list_read.o)
 .debug_aranges
                0x01a5af60       0x80 /usr/lib/gcc/i686-pc-cygwin/4.9.2/libgfortran.a(read.o)
 .debug_aranges
                0x01a5afe0       0x28 /usr/lib/gcc/i686-pc-cygwin/4.9.2/libgfortran.a(size_from_kind.o)
 .debug_aranges
                0x01a5b008       0x20 /usr/lib/gcc/i686-pc-cygwin/4.9.2/libgcc.a(_chkstk_ms.o)
 .debug_aranges
                0x01a5b028       0x20 /usr/lib/gcc/i686-pc-cygwin/4.9.2/libgcc.a(_divdi3.o)
 .debug_aranges
                0x01a5b048       0x20 /usr/lib/gcc/i686-pc-cygwin/4.9.2/libgcc.a(_udivdi3.o)
 .debug_aranges
                0x01a5b068       0x20 /usr/lib/gcc/i686-pc-cygwin/4.9.2/libgcc.a(_umoddi3.o)
 .debug_aranges
                0x01a5b088       0x20 /usr/lib/gcc/i686-pc-cygwin/4.9.2/libgcc.a(addtf3.o)
 .debug_aranges
                0x01a5b0a8       0x20 /usr/lib/gcc/i686-pc-cygwin/4.9.2/libgcc.a(divtf3.o)
 .debug_aranges
                0x01a5b0c8       0x20 /usr/lib/gcc/i686-pc-cygwin/4.9.2/libgcc.a(eqtf2.o)
 .debug_aranges
                0x01a5b0e8       0x20 /usr/lib/gcc/i686-pc-cygwin/4.9.2/libgcc.a(getf2.o)
 .debug_aranges
                0x01a5b108       0x20 /usr/lib/gcc/i686-pc-cygwin/4.9.2/libgcc.a(letf2.o)
 .debug_aranges
                0x01a5b128       0x20 /usr/lib/gcc/i686-pc-cygwin/4.9.2/libgcc.a(multf3.o)
 .debug_aranges
                0x01a5b148       0x20 /usr/lib/gcc/i686-pc-cygwin/4.9.2/libgcc.a(subtf3.o)
 .debug_aranges
                0x01a5b168       0x20 /usr/lib/gcc/i686-pc-cygwin/4.9.2/libgcc.a(floatunditf.o)
 .debug_aranges
                0x01a5b188       0x20 /usr/lib/gcc/i686-pc-cygwin/4.9.2/libgcc.a(sfp-exceptions.o)
 .debug_aranges
                0x01a5b1a8       0x20 /usr/lib/gcc/i686-pc-cygwin/4.9.2/libgcc_eh.a(unwind-dw2.o)
 .debug_aranges
                0x01a5b1c8       0x20 /usr/lib/gcc/i686-pc-cygwin/4.9.2/libgcc_eh.a(unwind-dw2-fde.o)
 .debug_aranges
                0x01a5b1e8       0x20 /usr/lib/gcc/i686-pc-cygwin/4.9.2/libquadmath.a(isnanq.o)
 .debug_aranges
                0x01a5b208       0x20 /usr/lib/gcc/i686-pc-cygwin/4.9.2/libquadmath.a(signbitq.o)
 .debug_aranges
                0x01a5b228       0x20 /usr/lib/gcc/i686-pc-cygwin/4.9.2/libquadmath.a(finiteq.o)
 .debug_aranges
                0x01a5b248       0x20 /usr/lib/gcc/i686-pc-cygwin/4.9.2/../../../libcygwin.a(cygwin_crt0.o)
 .debug_aranges
                0x01a5b268       0x20 /usr/lib/gcc/i686-pc-cygwin/4.9.2/../../../libcygwin.a(premain0.o)
 .debug_aranges
                0x01a5b288       0x20 /usr/lib/gcc/i686-pc-cygwin/4.9.2/../../../libcygwin.a(premain1.o)
 .debug_aranges
                0x01a5b2a8       0x20 /usr/lib/gcc/i686-pc-cygwin/4.9.2/../../../libcygwin.a(premain2.o)
 .debug_aranges
                0x01a5b2c8       0x20 /usr/lib/gcc/i686-pc-cygwin/4.9.2/../../../libcygwin.a(premain3.o)
 .debug_aranges
                0x01a5b2e8       0x20 /usr/lib/gcc/i686-pc-cygwin/4.9.2/../../../libcygwin.a(_cygwin_crt0_common.o)
 .debug_aranges
                0x01a5b308       0x20 /usr/lib/gcc/i686-pc-cygwin/4.9.2/../../../libcygwin.a(dll_entry.o)
 .debug_aranges
                0x01a5b328       0x20 /usr/lib/gcc/i686-pc-cygwin/4.9.2/../../../libcygwin.a(dll_main.o)
 .debug_aranges
                0x01a5b348       0x20 /usr/lib/gcc/i686-pc-cygwin/4.9.2/../../../libcygwin.a(pseudo-reloc-dummy.o)
 .debug_aranges
                0x01a5b368       0x20 /usr/lib/gcc/i686-pc-cygwin/4.9.2/../../../libcygwin.a(cygwin_attach_dll.o)
 .debug_aranges
                0x01a5b388       0x18 /usr/lib/gcc/i686-pc-cygwin/4.9.2/libgcc.a(_ctors.o)

.zdebug_aranges
 *(.zdebug_aranges)

.debug_pubnames
 *(.debug_pubnames)

.zdebug_pubnames
 *(.zdebug_pubnames)

.debug_pubtypes
 *(.debug_pubtypes)

.zdebug_pubtypes
 *(.zdebug_pubtypes)

.debug_info     0x01a5c000    0x7cc00
 *(.debug_info .gnu.linkonce.wi.*)
 .debug_info    0x01a5c000     0x12b9 /usr/lib/gcc/i686-pc-cygwin/4.9.2/../../../crt0.o
 .debug_info    0x01a5d2b9     0x4f43 obj/imploc.o
 .debug_info    0x01a621fc     0x2737 obj/io_list.o
 .debug_info    0x01a64933     0x10ab obj/mensamod.o
 .debug_info    0x01a659de     0x103d obj/zcomm.o
 .debug_info    0x01a66a1b     0x2c05 obj/getoptm.o
 .debug_info    0x01a69620      0xe4c obj/mlogit.o
 .debug_info    0x01a6a46c      0x40c obj/mpowit.o
 .debug_info    0x01a6a878      0x7e9 obj/distribm.o
 .debug_info    0x01a6b061     0x67ff obj/lcomm.o
 .debug_info    0x01a71860     0x4091 obj/control.o
 .debug_info    0x01a758f1     0x3016 obj/gener.o
 .debug_info    0x01a78907      0x4dd obj/param.o
 .debug_info    0x01a78de4      0x691 obj/lparc.o
 .debug_info    0x01a79475      0x7d4 obj/optionsm.o
 .debug_info    0x01a79c49     0x1100 obj/debugm.o
 .debug_info    0x01a7ad49      0xc09 /usr/lib/gcc/i686-pc-cygwin/4.9.2/libgfortran.a(compile_options.o)
 .debug_info    0x01a7b952     0x1892 /usr/lib/gcc/i686-pc-cygwin/4.9.2/libgfortran.a(environ.o)
 .debug_info    0x01a7d1e4     0x1a46 /usr/lib/gcc/i686-pc-cygwin/4.9.2/libgfortran.a(error.o)
 .debug_info    0x01a7ec2a     0x1042 /usr/lib/gcc/i686-pc-cygwin/4.9.2/libgfortran.a(main.o)
 .debug_info    0x01a7fc6c      0x7f2 /usr/lib/gcc/i686-pc-cygwin/4.9.2/libgfortran.a(memory.o)
 .debug_info    0x01a8045e      0xbbe /usr/lib/gcc/i686-pc-cygwin/4.9.2/libgfortran.a(stop.o)
 .debug_info    0x01a8101c      0xd1a /usr/lib/gcc/i686-pc-cygwin/4.9.2/libgfortran.a(string.o)
 .debug_info    0x01a81d36     0x2270 /usr/lib/gcc/i686-pc-cygwin/4.9.2/libgfortran.a(close.o)
 .debug_info    0x01a83fa6     0x2f01 /usr/lib/gcc/i686-pc-cygwin/4.9.2/libgfortran.a(file_pos.o)
 .debug_info    0x01a86ea7     0x2f21 /usr/lib/gcc/i686-pc-cygwin/4.9.2/libgfortran.a(inquire.o)
 .debug_info    0x01a89dc8     0x1c65 /usr/lib/gcc/i686-pc-cygwin/4.9.2/libgfortran.a(lock.o)
 .debug_info    0x01a8ba2d     0x3683 /usr/lib/gcc/i686-pc-cygwin/4.9.2/libgfortran.a(open.o)
 .debug_info    0x01a8f0b0     0x8bae /usr/lib/gcc/i686-pc-cygwin/4.9.2/libgfortran.a(transfer.o)
 .debug_info    0x01a97c5e     0x41bb /usr/lib/gcc/i686-pc-cygwin/4.9.2/libgfortran.a(unit.o)
 .debug_info    0x01a9be19     0x5888 /usr/lib/gcc/i686-pc-cygwin/4.9.2/libgfortran.a(unix.o)
 .debug_info    0x01aa16a1     0x85e4 /usr/lib/gcc/i686-pc-cygwin/4.9.2/libgfortran.a(write.o)
 .debug_info    0x01aa9c85     0x186d /usr/lib/gcc/i686-pc-cygwin/4.9.2/libgfortran.a(fbuf.o)
 .debug_info    0x01aab4f2      0xd86 /usr/lib/gcc/i686-pc-cygwin/4.9.2/libgfortran.a(args.o)
 .debug_info    0x01aac278      0x917 /usr/lib/gcc/i686-pc-cygwin/4.9.2/libgfortran.a(chdir.o)
 .debug_info    0x01aacb8f     0x19f7 /usr/lib/gcc/i686-pc-cygwin/4.9.2/libgfortran.a(date_and_time.o)
 .debug_info    0x01aae586     0x1c11 /usr/lib/gcc/i686-pc-cygwin/4.9.2/libgfortran.a(string_intrinsics.o)
 .debug_info    0x01ab0197     0x1b20 /usr/lib/gcc/i686-pc-cygwin/4.9.2/libgfortran.a(random.o)
 .debug_info    0x01ab1cb7     0x114f /usr/lib/gcc/i686-pc-cygwin/4.9.2/libgfortran.a(backtrace.o)
 .debug_info    0x01ab2e06      0xa07 /usr/lib/gcc/i686-pc-cygwin/4.9.2/libgfortran.a(fpu.o)
 .debug_info    0x01ab380d     0x3c4d /usr/lib/gcc/i686-pc-cygwin/4.9.2/libgfortran.a(format.o)
 .debug_info    0x01ab745a     0x7159 /usr/lib/gcc/i686-pc-cygwin/4.9.2/libgfortran.a(list_read.o)
 .debug_info    0x01abe5b3     0x3e38 /usr/lib/gcc/i686-pc-cygwin/4.9.2/libgfortran.a(read.o)
 .debug_info    0x01ac23eb     0x1245 /usr/lib/gcc/i686-pc-cygwin/4.9.2/libgfortran.a(size_from_kind.o)
 .debug_info    0x01ac3630       0x8e /usr/lib/gcc/i686-pc-cygwin/4.9.2/libgcc.a(_chkstk_ms.o)
 .debug_info    0x01ac36be      0x661 /usr/lib/gcc/i686-pc-cygwin/4.9.2/libgcc.a(_divdi3.o)
 .debug_info    0x01ac3d1f      0x630 /usr/lib/gcc/i686-pc-cygwin/4.9.2/libgcc.a(_udivdi3.o)
 .debug_info    0x01ac434f      0x649 /usr/lib/gcc/i686-pc-cygwin/4.9.2/libgcc.a(_umoddi3.o)
 .debug_info    0x01ac4998      0xca8 /usr/lib/gcc/i686-pc-cygwin/4.9.2/libgcc.a(addtf3.o)
 .debug_info    0x01ac5640      0x982 /usr/lib/gcc/i686-pc-cygwin/4.9.2/libgcc.a(divtf3.o)
 .debug_info    0x01ac5fc2      0x555 /usr/lib/gcc/i686-pc-cygwin/4.9.2/libgcc.a(eqtf2.o)
 .debug_info    0x01ac6517      0x554 /usr/lib/gcc/i686-pc-cygwin/4.9.2/libgcc.a(getf2.o)
 .debug_info    0x01ac6a6b      0x557 /usr/lib/gcc/i686-pc-cygwin/4.9.2/libgcc.a(letf2.o)
 .debug_info    0x01ac6fc2      0xa08 /usr/lib/gcc/i686-pc-cygwin/4.9.2/libgcc.a(multf3.o)
 .debug_info    0x01ac79ca      0xcac /usr/lib/gcc/i686-pc-cygwin/4.9.2/libgcc.a(subtf3.o)
 .debug_info    0x01ac8676      0x50e /usr/lib/gcc/i686-pc-cygwin/4.9.2/libgcc.a(floatunditf.o)
 .debug_info    0x01ac8b84      0x48c /usr/lib/gcc/i686-pc-cygwin/4.9.2/libgcc.a(sfp-exceptions.o)
 .debug_info    0x01ac9010     0x5cf5 /usr/lib/gcc/i686-pc-cygwin/4.9.2/libgcc_eh.a(unwind-dw2.o)
 .debug_info    0x01aced05     0x35ad /usr/lib/gcc/i686-pc-cygwin/4.9.2/libgcc_eh.a(unwind-dw2-fde.o)
 .debug_info    0x01ad22b2      0x408 /usr/lib/gcc/i686-pc-cygwin/4.9.2/libquadmath.a(isnanq.o)
 .debug_info    0x01ad26ba      0x3d7 /usr/lib/gcc/i686-pc-cygwin/4.9.2/libquadmath.a(signbitq.o)
 .debug_info    0x01ad2a91      0x282 /usr/lib/gcc/i686-pc-cygwin/4.9.2/libquadmath.a(finiteq.o)
 .debug_info    0x01ad2d13      0x379 /usr/lib/gcc/i686-pc-cygwin/4.9.2/../../../libcygwin.a(cygwin_crt0.o)
 .debug_info    0x01ad308c      0x234 /usr/lib/gcc/i686-pc-cygwin/4.9.2/../../../libcygwin.a(premain0.o)
 .debug_info    0x01ad32c0      0x234 /usr/lib/gcc/i686-pc-cygwin/4.9.2/../../../libcygwin.a(premain1.o)
 .debug_info    0x01ad34f4      0x234 /usr/lib/gcc/i686-pc-cygwin/4.9.2/../../../libcygwin.a(premain2.o)
 .debug_info    0x01ad3728      0x234 /usr/lib/gcc/i686-pc-cygwin/4.9.2/../../../libcygwin.a(premain3.o)
 .debug_info    0x01ad395c     0x2329 /usr/lib/gcc/i686-pc-cygwin/4.9.2/../../../libcygwin.a(_cygwin_crt0_common.o)
 .debug_info    0x01ad5c85      0x8aa /usr/lib/gcc/i686-pc-cygwin/4.9.2/../../../libcygwin.a(dll_entry.o)
 .debug_info    0x01ad652f      0x39f /usr/lib/gcc/i686-pc-cygwin/4.9.2/../../../libcygwin.a(dll_main.o)
 .debug_info    0x01ad68ce      0x20a /usr/lib/gcc/i686-pc-cygwin/4.9.2/../../../libcygwin.a(pseudo-reloc-dummy.o)
 .debug_info    0x01ad6ad8     0x1232 /usr/lib/gcc/i686-pc-cygwin/4.9.2/../../../libcygwin.a(cygwin_attach_dll.o)
 .debug_info    0x01ad7d0a      0xe56 /usr/lib/gcc/i686-pc-cygwin/4.9.2/libgcc.a(_ctors.o)

.zdebug_info
 *(.zdebug_info .zdebug.gnu.linkonce.wi.*)

.debug_abbrev   0x01ad9000     0xae00
 *(.debug_abbrev)
 .debug_abbrev  0x01ad9000      0x1eb /usr/lib/gcc/i686-pc-cygwin/4.9.2/../../../crt0.o
 .debug_abbrev  0x01ad91eb      0x3ca obj/imploc.o
 .debug_abbrev  0x01ad95b5      0x2e7 obj/io_list.o
 .debug_abbrev  0x01ad989c      0x24e obj/mensamod.o
 .debug_abbrev  0x01ad9aea      0x19c obj/zcomm.o
 .debug_abbrev  0x01ad9c86      0x469 obj/getoptm.o
 .debug_abbrev  0x01ada0ef      0x19e obj/mlogit.o
 .debug_abbrev  0x01ada28d      0x13a obj/mpowit.o
 .debug_abbrev  0x01ada3c7      0x179 obj/distribm.o
 .debug_abbrev  0x01ada540      0x2c3 obj/lcomm.o
 .debug_abbrev  0x01ada803      0x409 obj/control.o
 .debug_abbrev  0x01adac0c      0x466 obj/gener.o
 .debug_abbrev  0x01adb072       0xc2 obj/param.o
 .debug_abbrev  0x01adb134       0x88 obj/lparc.o
 .debug_abbrev  0x01adb1bc       0xfe obj/optionsm.o
 .debug_abbrev  0x01adb2ba      0x272 obj/debugm.o
 .debug_abbrev  0x01adb52c      0x23d /usr/lib/gcc/i686-pc-cygwin/4.9.2/libgfortran.a(compile_options.o)
 .debug_abbrev  0x01adb769      0x418 /usr/lib/gcc/i686-pc-cygwin/4.9.2/libgfortran.a(environ.o)
 .debug_abbrev  0x01adbb81      0x411 /usr/lib/gcc/i686-pc-cygwin/4.9.2/libgfortran.a(error.o)
 .debug_abbrev  0x01adbf92      0x2ed /usr/lib/gcc/i686-pc-cygwin/4.9.2/libgfortran.a(main.o)
 .debug_abbrev  0x01adc27f      0x150 /usr/lib/gcc/i686-pc-cygwin/4.9.2/libgfortran.a(memory.o)
 .debug_abbrev  0x01adc3cf      0x1ab /usr/lib/gcc/i686-pc-cygwin/4.9.2/libgfortran.a(stop.o)
 .debug_abbrev  0x01adc57a      0x1d9 /usr/lib/gcc/i686-pc-cygwin/4.9.2/libgfortran.a(string.o)
 .debug_abbrev  0x01adc753      0x29a /usr/lib/gcc/i686-pc-cygwin/4.9.2/libgfortran.a(close.o)
 .debug_abbrev  0x01adc9ed      0x430 /usr/lib/gcc/i686-pc-cygwin/4.9.2/libgfortran.a(file_pos.o)
 .debug_abbrev  0x01adce1d      0x395 /usr/lib/gcc/i686-pc-cygwin/4.9.2/libgfortran.a(inquire.o)
 .debug_abbrev  0x01add1b2      0x1e8 /usr/lib/gcc/i686-pc-cygwin/4.9.2/libgfortran.a(lock.o)
 .debug_abbrev  0x01add39a      0x493 /usr/lib/gcc/i686-pc-cygwin/4.9.2/libgfortran.a(open.o)
 .debug_abbrev  0x01add82d      0x64d /usr/lib/gcc/i686-pc-cygwin/4.9.2/libgfortran.a(transfer.o)
 .debug_abbrev  0x01adde7a      0x5c8 /usr/lib/gcc/i686-pc-cygwin/4.9.2/libgfortran.a(unit.o)
 .debug_abbrev  0x01ade442      0x612 /usr/lib/gcc/i686-pc-cygwin/4.9.2/libgfortran.a(unix.o)
 .debug_abbrev  0x01adea54      0x6e9 /usr/lib/gcc/i686-pc-cygwin/4.9.2/libgfortran.a(write.o)
 .debug_abbrev  0x01adf13d      0x2cb /usr/lib/gcc/i686-pc-cygwin/4.9.2/libgfortran.a(fbuf.o)
 .debug_abbrev  0x01adf408      0x1ec /usr/lib/gcc/i686-pc-cygwin/4.9.2/libgfortran.a(args.o)
 .debug_abbrev  0x01adf5f4      0x198 /usr/lib/gcc/i686-pc-cygwin/4.9.2/libgfortran.a(chdir.o)
 .debug_abbrev  0x01adf78c      0x371 /usr/lib/gcc/i686-pc-cygwin/4.9.2/libgfortran.a(date_and_time.o)
 .debug_abbrev  0x01adfafd      0x39b /usr/lib/gcc/i686-pc-cygwin/4.9.2/libgfortran.a(string_intrinsics.o)
 .debug_abbrev  0x01adfe98      0x2f4 /usr/lib/gcc/i686-pc-cygwin/4.9.2/libgfortran.a(random.o)
 .debug_abbrev  0x01ae018c      0x2d7 /usr/lib/gcc/i686-pc-cygwin/4.9.2/libgfortran.a(backtrace.o)
 .debug_abbrev  0x01ae0463      0x1f4 /usr/lib/gcc/i686-pc-cygwin/4.9.2/libgfortran.a(fpu.o)
 .debug_abbrev  0x01ae0657      0x4e9 /usr/lib/gcc/i686-pc-cygwin/4.9.2/libgfortran.a(format.o)
 .debug_abbrev  0x01ae0b40      0x61b /usr/lib/gcc/i686-pc-cygwin/4.9.2/libgfortran.a(list_read.o)
 .debug_abbrev  0x01ae115b      0x600 /usr/lib/gcc/i686-pc-cygwin/4.9.2/libgfortran.a(read.o)
 .debug_abbrev  0x01ae175b      0x157 /usr/lib/gcc/i686-pc-cygwin/4.9.2/libgfortran.a(size_from_kind.o)
 .debug_abbrev  0x01ae18b2       0x14 /usr/lib/gcc/i686-pc-cygwin/4.9.2/libgcc.a(_chkstk_ms.o)
 .debug_abbrev  0x01ae18c6      0x12a /usr/lib/gcc/i686-pc-cygwin/4.9.2/libgcc.a(_divdi3.o)
 .debug_abbrev  0x01ae19f0      0x11d /usr/lib/gcc/i686-pc-cygwin/4.9.2/libgcc.a(_udivdi3.o)
 .debug_abbrev  0x01ae1b0d      0x12c /usr/lib/gcc/i686-pc-cygwin/4.9.2/libgcc.a(_umoddi3.o)
 .debug_abbrev  0x01ae1c39      0x163 /usr/lib/gcc/i686-pc-cygwin/4.9.2/libgcc.a(addtf3.o)
 .debug_abbrev  0x01ae1d9c      0x141 /usr/lib/gcc/i686-pc-cygwin/4.9.2/libgcc.a(divtf3.o)
 .debug_abbrev  0x01ae1edd      0x10a /usr/lib/gcc/i686-pc-cygwin/4.9.2/libgcc.a(eqtf2.o)
 .debug_abbrev  0x01ae1fe7      0x119 /usr/lib/gcc/i686-pc-cygwin/4.9.2/libgcc.a(getf2.o)
 .debug_abbrev  0x01ae2100      0x10a /usr/lib/gcc/i686-pc-cygwin/4.9.2/libgcc.a(letf2.o)
 .debug_abbrev  0x01ae220a      0x141 /usr/lib/gcc/i686-pc-cygwin/4.9.2/libgcc.a(multf3.o)
 .debug_abbrev  0x01ae234b      0x163 /usr/lib/gcc/i686-pc-cygwin/4.9.2/libgcc.a(subtf3.o)
 .debug_abbrev  0x01ae24ae       0xf6 /usr/lib/gcc/i686-pc-cygwin/4.9.2/libgcc.a(floatunditf.o)
 .debug_abbrev  0x01ae25a4       0xab /usr/lib/gcc/i686-pc-cygwin/4.9.2/libgcc.a(sfp-exceptions.o)
 .debug_abbrev  0x01ae264f      0x582 /usr/lib/gcc/i686-pc-cygwin/4.9.2/libgcc_eh.a(unwind-dw2.o)
 .debug_abbrev  0x01ae2bd1      0x54c /usr/lib/gcc/i686-pc-cygwin/4.9.2/libgcc_eh.a(unwind-dw2-fde.o)
 .debug_abbrev  0x01ae311d       0xe3 /usr/lib/gcc/i686-pc-cygwin/4.9.2/libquadmath.a(isnanq.o)
 .debug_abbrev  0x01ae3200       0xcb /usr/lib/gcc/i686-pc-cygwin/4.9.2/libquadmath.a(signbitq.o)
 .debug_abbrev  0x01ae32cb       0x6b /usr/lib/gcc/i686-pc-cygwin/4.9.2/libquadmath.a(finiteq.o)
 .debug_abbrev  0x01ae3336       0xa5 /usr/lib/gcc/i686-pc-cygwin/4.9.2/../../../libcygwin.a(cygwin_crt0.o)
 .debug_abbrev  0x01ae33db       0x4f /usr/lib/gcc/i686-pc-cygwin/4.9.2/../../../libcygwin.a(premain0.o)
 .debug_abbrev  0x01ae342a       0x4f /usr/lib/gcc/i686-pc-cygwin/4.9.2/../../../libcygwin.a(premain1.o)
 .debug_abbrev  0x01ae3479       0x4f /usr/lib/gcc/i686-pc-cygwin/4.9.2/../../../libcygwin.a(premain2.o)
 .debug_abbrev  0x01ae34c8       0x4f /usr/lib/gcc/i686-pc-cygwin/4.9.2/../../../libcygwin.a(premain3.o)
 .debug_abbrev  0x01ae3517      0x43f /usr/lib/gcc/i686-pc-cygwin/4.9.2/../../../libcygwin.a(_cygwin_crt0_common.o)
 .debug_abbrev  0x01ae3956      0x190 /usr/lib/gcc/i686-pc-cygwin/4.9.2/../../../libcygwin.a(dll_entry.o)
 .debug_abbrev  0x01ae3ae6       0x81 /usr/lib/gcc/i686-pc-cygwin/4.9.2/../../../libcygwin.a(dll_main.o)
 .debug_abbrev  0x01ae3b67       0x28 /usr/lib/gcc/i686-pc-cygwin/4.9.2/../../../libcygwin.a(pseudo-reloc-dummy.o)
 .debug_abbrev  0x01ae3b8f      0x1fa /usr/lib/gcc/i686-pc-cygwin/4.9.2/../../../libcygwin.a(cygwin_attach_dll.o)
 .debug_abbrev  0x01ae3d89       0x73 /usr/lib/gcc/i686-pc-cygwin/4.9.2/libgcc.a(_ctors.o)

.zdebug_abbrev
 *(.zdebug_abbrev)

.debug_line     0x01ae4000    0x11400
 *(.debug_line)
 .debug_line    0x01ae4000      0x22b /usr/lib/gcc/i686-pc-cygwin/4.9.2/../../../crt0.o
 .debug_line    0x01ae422b      0x5ee obj/imploc.o
 .debug_line    0x01ae4819      0x1c7 obj/io_list.o
 .debug_line    0x01ae49e0       0xcd obj/mensamod.o
 .debug_line    0x01ae4aad      0x11a obj/zcomm.o
 .debug_line    0x01ae4bc7      0x492 obj/getoptm.o
 .debug_line    0x01ae5059      0x182 obj/mlogit.o
 .debug_line    0x01ae51db       0xd7 obj/mpowit.o
 .debug_line    0x01ae52b2       0x71 obj/distribm.o
 .debug_line    0x01ae5323      0xa21 obj/lcomm.o
 .debug_line    0x01ae5d44      0x4fc obj/control.o
 .debug_line    0x01ae6240      0x366 obj/gener.o
 .debug_line    0x01ae65a6       0x3a obj/param.o
 .debug_line    0x01ae65e0       0x2a obj/lparc.o
 .debug_line    0x01ae660a       0x4e obj/optionsm.o
 .debug_line    0x01ae6658       0xdc obj/debugm.o
 .debug_line    0x01ae6734      0x1fa /usr/lib/gcc/i686-pc-cygwin/4.9.2/libgfortran.a(compile_options.o)
 .debug_line    0x01ae692e      0x539 /usr/lib/gcc/i686-pc-cygwin/4.9.2/libgfortran.a(environ.o)
 .debug_line    0x01ae6e67      0x523 /usr/lib/gcc/i686-pc-cygwin/4.9.2/libgfortran.a(error.o)
 .debug_line    0x01ae738a      0x23c /usr/lib/gcc/i686-pc-cygwin/4.9.2/libgfortran.a(main.o)
 .debug_line    0x01ae75c6      0x143 /usr/lib/gcc/i686-pc-cygwin/4.9.2/libgfortran.a(memory.o)
 .debug_line    0x01ae7709      0x1f7 /usr/lib/gcc/i686-pc-cygwin/4.9.2/libgfortran.a(stop.o)
 .debug_line    0x01ae7900      0x1cd /usr/lib/gcc/i686-pc-cygwin/4.9.2/libgfortran.a(string.o)
 .debug_line    0x01ae7acd      0x1e4 /usr/lib/gcc/i686-pc-cygwin/4.9.2/libgfortran.a(close.o)
 .debug_line    0x01ae7cb1      0x441 /usr/lib/gcc/i686-pc-cygwin/4.9.2/libgfortran.a(file_pos.o)
 .debug_line    0x01ae80f2      0x533 /usr/lib/gcc/i686-pc-cygwin/4.9.2/libgfortran.a(inquire.o)
 .debug_line    0x01ae8625      0x1cd /usr/lib/gcc/i686-pc-cygwin/4.9.2/libgfortran.a(lock.o)
 .debug_line    0x01ae87f2      0x658 /usr/lib/gcc/i686-pc-cygwin/4.9.2/libgfortran.a(open.o)
 .debug_line    0x01ae8e4a     0x1732 /usr/lib/gcc/i686-pc-cygwin/4.9.2/libgfortran.a(transfer.o)
 .debug_line    0x01aea57c      0x68a /usr/lib/gcc/i686-pc-cygwin/4.9.2/libgfortran.a(unit.o)
 .debug_line    0x01aeac06      0xc10 /usr/lib/gcc/i686-pc-cygwin/4.9.2/libgfortran.a(unix.o)
 .debug_line    0x01aeb816     0x14dd /usr/lib/gcc/i686-pc-cygwin/4.9.2/libgfortran.a(write.o)
 .debug_line    0x01aeccf3      0x304 /usr/lib/gcc/i686-pc-cygwin/4.9.2/libgfortran.a(fbuf.o)
 .debug_line    0x01aecff7      0x21c /usr/lib/gcc/i686-pc-cygwin/4.9.2/libgfortran.a(args.o)
 .debug_line    0x01aed213      0x18b /usr/lib/gcc/i686-pc-cygwin/4.9.2/libgfortran.a(chdir.o)
 .debug_line    0x01aed39e      0x451 /usr/lib/gcc/i686-pc-cygwin/4.9.2/libgfortran.a(date_and_time.o)
 .debug_line    0x01aed7ef      0x5f3 /usr/lib/gcc/i686-pc-cygwin/4.9.2/libgfortran.a(string_intrinsics.o)
 .debug_line    0x01aedde2      0x66d /usr/lib/gcc/i686-pc-cygwin/4.9.2/libgfortran.a(random.o)
 .debug_line    0x01aee44f      0x24e /usr/lib/gcc/i686-pc-cygwin/4.9.2/libgfortran.a(backtrace.o)
 .debug_line    0x01aee69d      0x1bf /usr/lib/gcc/i686-pc-cygwin/4.9.2/libgfortran.a(fpu.o)
 .debug_line    0x01aee85c      0x7a8 /usr/lib/gcc/i686-pc-cygwin/4.9.2/libgfortran.a(format.o)
 .debug_line    0x01aef004     0x12c9 /usr/lib/gcc/i686-pc-cygwin/4.9.2/libgfortran.a(list_read.o)
 .debug_line    0x01af02cd      0x7c7 /usr/lib/gcc/i686-pc-cygwin/4.9.2/libgfortran.a(read.o)
 .debug_line    0x01af0a94      0x1eb /usr/lib/gcc/i686-pc-cygwin/4.9.2/libgfortran.a(size_from_kind.o)
 .debug_line    0x01af0c7f       0x75 /usr/lib/gcc/i686-pc-cygwin/4.9.2/libgcc.a(_chkstk_ms.o)
 .debug_line    0x01af0cf4       0xbf /usr/lib/gcc/i686-pc-cygwin/4.9.2/libgcc.a(_divdi3.o)
 .debug_line    0x01af0db3       0xc0 /usr/lib/gcc/i686-pc-cygwin/4.9.2/libgcc.a(_udivdi3.o)
 .debug_line    0x01af0e73       0xce /usr/lib/gcc/i686-pc-cygwin/4.9.2/libgcc.a(_umoddi3.o)
 .debug_line    0x01af0f41      0xa00 /usr/lib/gcc/i686-pc-cygwin/4.9.2/libgcc.a(addtf3.o)
 .debug_line    0x01af1941      0x494 /usr/lib/gcc/i686-pc-cygwin/4.9.2/libgcc.a(divtf3.o)
 .debug_line    0x01af1dd5       0xd7 /usr/lib/gcc/i686-pc-cygwin/4.9.2/libgcc.a(eqtf2.o)
 .debug_line    0x01af1eac      0x147 /usr/lib/gcc/i686-pc-cygwin/4.9.2/libgcc.a(getf2.o)
 .debug_line    0x01af1ff3      0x11d /usr/lib/gcc/i686-pc-cygwin/4.9.2/libgcc.a(letf2.o)
 .debug_line    0x01af2110      0x3ed /usr/lib/gcc/i686-pc-cygwin/4.9.2/libgcc.a(multf3.o)
 .debug_line    0x01af24fd      0x9cc /usr/lib/gcc/i686-pc-cygwin/4.9.2/libgcc.a(subtf3.o)
 .debug_line    0x01af2ec9       0xc4 /usr/lib/gcc/i686-pc-cygwin/4.9.2/libgcc.a(floatunditf.o)
 .debug_line    0x01af2f8d       0x87 /usr/lib/gcc/i686-pc-cygwin/4.9.2/libgcc.a(sfp-exceptions.o)
 .debug_line    0x01af3014      0xe60 /usr/lib/gcc/i686-pc-cygwin/4.9.2/libgcc_eh.a(unwind-dw2.o)
 .debug_line    0x01af3e74      0x74b /usr/lib/gcc/i686-pc-cygwin/4.9.2/libgcc_eh.a(unwind-dw2-fde.o)
 .debug_line    0x01af45bf       0xc0 /usr/lib/gcc/i686-pc-cygwin/4.9.2/libquadmath.a(isnanq.o)
 .debug_line    0x01af467f       0xba /usr/lib/gcc/i686-pc-cygwin/4.9.2/libquadmath.a(signbitq.o)
 .debug_line    0x01af4739       0x85 /usr/lib/gcc/i686-pc-cygwin/4.9.2/libquadmath.a(finiteq.o)
 .debug_line    0x01af47be       0x7b /usr/lib/gcc/i686-pc-cygwin/4.9.2/../../../libcygwin.a(cygwin_crt0.o)
 .debug_line    0x01af4839       0x6b /usr/lib/gcc/i686-pc-cygwin/4.9.2/../../../libcygwin.a(premain0.o)
 .debug_line    0x01af48a4       0x6b /usr/lib/gcc/i686-pc-cygwin/4.9.2/../../../libcygwin.a(premain1.o)
 .debug_line    0x01af490f       0x6b /usr/lib/gcc/i686-pc-cygwin/4.9.2/../../../libcygwin.a(premain2.o)
 .debug_line    0x01af497a       0x6b /usr/lib/gcc/i686-pc-cygwin/4.9.2/../../../libcygwin.a(premain3.o)
 .debug_line    0x01af49e5      0x465 /usr/lib/gcc/i686-pc-cygwin/4.9.2/../../../libcygwin.a(_cygwin_crt0_common.o)
 .debug_line    0x01af4e4a      0x102 /usr/lib/gcc/i686-pc-cygwin/4.9.2/../../../libcygwin.a(dll_entry.o)
 .debug_line    0x01af4f4c       0xae /usr/lib/gcc/i686-pc-cygwin/4.9.2/../../../libcygwin.a(dll_main.o)
 .debug_line    0x01af4ffa       0x73 /usr/lib/gcc/i686-pc-cygwin/4.9.2/../../../libcygwin.a(pseudo-reloc-dummy.o)
 .debug_line    0x01af506d      0x244 /usr/lib/gcc/i686-pc-cygwin/4.9.2/../../../libcygwin.a(cygwin_attach_dll.o)
 .debug_line    0x01af52b1       0x9a /usr/lib/gcc/i686-pc-cygwin/4.9.2/libgcc.a(_ctors.o)

.zdebug_line
 *(.zdebug_line)

.debug_frame    0x01af6000      0x200
 *(.debug_frame*)
 .debug_frame   0x01af6000       0x38 /usr/lib/gcc/i686-pc-cygwin/4.9.2/libgcc.a(_chkstk_ms.o)

.zdebug_frame
 *(.zdebug_frame*)

.debug_str      0x01af7000     0x1200
 *(.debug_str)
 .debug_str     0x01af7000        0xe /usr/lib/gcc/i686-pc-cygwin/4.9.2/../../../crt0.o
 .debug_str     0x01af700e       0x6e obj/imploc.o
 .debug_str     0x01af707c       0x62 obj/io_list.o
 .debug_str     0x01af70de        0x0 obj/mensamod.o
 .debug_str     0x01af70de        0x0 obj/zcomm.o
 .debug_str     0x01af70de       0x7f obj/getoptm.o
 .debug_str     0x01af715d        0x0 obj/mlogit.o
 .debug_str     0x01af715d        0x0 obj/mpowit.o
 .debug_str     0x01af715d        0x0 obj/distribm.o
 .debug_str     0x01af715d       0x21 obj/lcomm.o
 .debug_str     0x01af717e       0x78 obj/control.o
 .debug_str     0x01af71f6       0xe4 obj/gener.o
 .debug_str     0x01af72da        0x0 obj/param.o
 .debug_str     0x01af72da        0x0 obj/lparc.o
 .debug_str     0x01af72da        0x0 obj/optionsm.o
 .debug_str     0x01af72da       0x18 obj/debugm.o
 .debug_str     0x01af72f2        0xa /usr/lib/gcc/i686-pc-cygwin/4.9.2/libgfortran.a(compile_options.o)
 .debug_str     0x01af72fc       0x1f /usr/lib/gcc/i686-pc-cygwin/4.9.2/libgfortran.a(environ.o)
 .debug_str     0x01af731b       0x2f /usr/lib/gcc/i686-pc-cygwin/4.9.2/libgfortran.a(error.o)
 .debug_str     0x01af734a       0x1f /usr/lib/gcc/i686-pc-cygwin/4.9.2/libgfortran.a(main.o)
 .debug_str     0x01af7369        0xa /usr/lib/gcc/i686-pc-cygwin/4.9.2/libgfortran.a(memory.o)
 .debug_str     0x01af7373        0xa /usr/lib/gcc/i686-pc-cygwin/4.9.2/libgfortran.a(stop.o)
 .debug_str     0x01af737d       0x27 /usr/lib/gcc/i686-pc-cygwin/4.9.2/libgfortran.a(string.o)
 .debug_str     0x01af73a4       0x6c /usr/lib/gcc/i686-pc-cygwin/4.9.2/libgfortran.a(close.o)
 .debug_str     0x01af7410       0xfb /usr/lib/gcc/i686-pc-cygwin/4.9.2/libgfortran.a(file_pos.o)
 .debug_str     0x01af750b       0xe1 /usr/lib/gcc/i686-pc-cygwin/4.9.2/libgfortran.a(inquire.o)
 .debug_str     0x01af75ec       0x65 /usr/lib/gcc/i686-pc-cygwin/4.9.2/libgfortran.a(lock.o)
 .debug_str     0x01af7651       0xe7 /usr/lib/gcc/i686-pc-cygwin/4.9.2/libgfortran.a(open.o)
 .debug_str     0x01af7738      0x1b0 /usr/lib/gcc/i686-pc-cygwin/4.9.2/libgfortran.a(transfer.o)
 .debug_str     0x01af78e8      0x106 /usr/lib/gcc/i686-pc-cygwin/4.9.2/libgfortran.a(unit.o)
 .debug_str     0x01af79ee       0xd6 /usr/lib/gcc/i686-pc-cygwin/4.9.2/libgfortran.a(unix.o)
 .debug_str     0x01af7ac4      0x120 /usr/lib/gcc/i686-pc-cygwin/4.9.2/libgfortran.a(write.o)
 .debug_str     0x01af7be4       0x23 /usr/lib/gcc/i686-pc-cygwin/4.9.2/libgfortran.a(fbuf.o)
 .debug_str     0x01af7c07       0x3f /usr/lib/gcc/i686-pc-cygwin/4.9.2/libgfortran.a(args.o)
 .debug_str     0x01af7c46       0x12 /usr/lib/gcc/i686-pc-cygwin/4.9.2/libgfortran.a(chdir.o)
 .debug_str     0x01af7c58       0x58 /usr/lib/gcc/i686-pc-cygwin/4.9.2/libgfortran.a(date_and_time.o)
 .debug_str     0x01af7cb0       0x64 /usr/lib/gcc/i686-pc-cygwin/4.9.2/libgfortran.a(string_intrinsics.o)
 .debug_str     0x01af7d14       0x5c /usr/lib/gcc/i686-pc-cygwin/4.9.2/libgfortran.a(random.o)
 .debug_str     0x01af7d70        0xa /usr/lib/gcc/i686-pc-cygwin/4.9.2/libgfortran.a(backtrace.o)
 .debug_str     0x01af7d7a       0x1c /usr/lib/gcc/i686-pc-cygwin/4.9.2/libgfortran.a(fpu.o)
 .debug_str     0x01af7d96       0x8c /usr/lib/gcc/i686-pc-cygwin/4.9.2/libgfortran.a(format.o)
 .debug_str     0x01af7e22       0xf9 /usr/lib/gcc/i686-pc-cygwin/4.9.2/libgfortran.a(list_read.o)
 .debug_str     0x01af7f1b       0xb2 /usr/lib/gcc/i686-pc-cygwin/4.9.2/libgfortran.a(read.o)
 .debug_str     0x01af7fcd       0x23 /usr/lib/gcc/i686-pc-cygwin/4.9.2/libgfortran.a(size_from_kind.o)
 .debug_str     0x01af7ff0        0x0 /usr/lib/gcc/i686-pc-cygwin/4.9.2/libgcc.a(_divdi3.o)
 .debug_str     0x01af7ff0        0x0 /usr/lib/gcc/i686-pc-cygwin/4.9.2/libgcc.a(_udivdi3.o)
 .debug_str     0x01af7ff0        0x0 /usr/lib/gcc/i686-pc-cygwin/4.9.2/libgcc.a(_umoddi3.o)
 .debug_str     0x01af7ff0       0x14 /usr/lib/gcc/i686-pc-cygwin/4.9.2/libgcc.a(addtf3.o)
 .debug_str     0x01af8004        0xc /usr/lib/gcc/i686-pc-cygwin/4.9.2/libgcc.a(divtf3.o)
 .debug_str     0x01af8010        0x0 /usr/lib/gcc/i686-pc-cygwin/4.9.2/libgcc.a(eqtf2.o)
 .debug_str     0x01af8010        0x0 /usr/lib/gcc/i686-pc-cygwin/4.9.2/libgcc.a(getf2.o)
 .debug_str     0x01af8010        0x0 /usr/lib/gcc/i686-pc-cygwin/4.9.2/libgcc.a(letf2.o)
 .debug_str     0x01af8010        0xc /usr/lib/gcc/i686-pc-cygwin/4.9.2/libgcc.a(multf3.o)
 .debug_str     0x01af801c       0x14 /usr/lib/gcc/i686-pc-cygwin/4.9.2/libgcc.a(subtf3.o)
 .debug_str     0x01af8030        0x0 /usr/lib/gcc/i686-pc-cygwin/4.9.2/libgcc.a(floatunditf.o)
 .debug_str     0x01af8030        0x0 /usr/lib/gcc/i686-pc-cygwin/4.9.2/libgcc.a(sfp-exceptions.o)
 .debug_str     0x01af8030       0x93 /usr/lib/gcc/i686-pc-cygwin/4.9.2/libgcc_eh.a(unwind-dw2.o)
 .debug_str     0x01af80c3       0x6e /usr/lib/gcc/i686-pc-cygwin/4.9.2/libgcc_eh.a(unwind-dw2-fde.o)
 .debug_str     0x01af8131       0x25 /usr/lib/gcc/i686-pc-cygwin/4.9.2/libquadmath.a(isnanq.o)
 .debug_str     0x01af8156       0x25 /usr/lib/gcc/i686-pc-cygwin/4.9.2/libquadmath.a(signbitq.o)
 .debug_str     0x01af817b        0x0 /usr/lib/gcc/i686-pc-cygwin/4.9.2/libquadmath.a(finiteq.o)
 .debug_str     0x01af817b        0x0 /usr/lib/gcc/i686-pc-cygwin/4.9.2/../../../libcygwin.a(cygwin_crt0.o)
 .debug_str     0x01af817b        0x0 /usr/lib/gcc/i686-pc-cygwin/4.9.2/../../../libcygwin.a(premain0.o)
 .debug_str     0x01af817b        0x0 /usr/lib/gcc/i686-pc-cygwin/4.9.2/../../../libcygwin.a(premain1.o)
 .debug_str     0x01af817b        0x0 /usr/lib/gcc/i686-pc-cygwin/4.9.2/../../../libcygwin.a(premain2.o)
 .debug_str     0x01af817b        0x0 /usr/lib/gcc/i686-pc-cygwin/4.9.2/../../../libcygwin.a(premain3.o)
 .debug_str     0x01af817b       0x27 /usr/lib/gcc/i686-pc-cygwin/4.9.2/../../../libcygwin.a(_cygwin_crt0_common.o)
 .debug_str     0x01af81a2        0x0 /usr/lib/gcc/i686-pc-cygwin/4.9.2/../../../libcygwin.a(dll_entry.o)
 .debug_str     0x01af81a2        0x0 /usr/lib/gcc/i686-pc-cygwin/4.9.2/../../../libcygwin.a(dll_main.o)
 .debug_str     0x01af81a2        0x0 /usr/lib/gcc/i686-pc-cygwin/4.9.2/../../../libcygwin.a(pseudo-reloc-dummy.o)
 .debug_str     0x01af81a2        0xe /usr/lib/gcc/i686-pc-cygwin/4.9.2/../../../libcygwin.a(cygwin_attach_dll.o)
 .debug_str     0x01af81b0        0x0 /usr/lib/gcc/i686-pc-cygwin/4.9.2/libgcc.a(_ctors.o)

.zdebug_str
 *(.zdebug_str)

.debug_loc      0x01af9000    0x35800
 *(.debug_loc)
 .debug_loc     0x01af9000      0x4c1 obj/imploc.o
 .debug_loc     0x01af94c1      0x664 obj/io_list.o
 .debug_loc     0x01af9b25       0x8e obj/mensamod.o
 .debug_loc     0x01af9bb3       0x87 obj/zcomm.o
 .debug_loc     0x01af9c3a      0x6aa obj/getoptm.o
 .debug_loc     0x01afa2e4      0x339 obj/mlogit.o
 .debug_loc     0x01afa61d      0x17d obj/mpowit.o
 .debug_loc     0x01afa79a       0x54 obj/distribm.o
 .debug_loc     0x01afa7ee      0xf9f obj/lcomm.o
 .debug_loc     0x01afb78d      0x64d obj/control.o
 .debug_loc     0x01afbdda      0x6d1 obj/gener.o
 .debug_loc     0x01afc4ab       0xbd obj/debugm.o
 .debug_loc     0x01afc568       0xa8 /usr/lib/gcc/i686-pc-cygwin/4.9.2/libgfortran.a(compile_options.o)
 .debug_loc     0x01afc610      0x785 /usr/lib/gcc/i686-pc-cygwin/4.9.2/libgfortran.a(environ.o)
 .debug_loc     0x01afcd95      0x3e9 /usr/lib/gcc/i686-pc-cygwin/4.9.2/libgfortran.a(error.o)
 .debug_loc     0x01afd17e      0x1d4 /usr/lib/gcc/i686-pc-cygwin/4.9.2/libgfortran.a(main.o)
 .debug_loc     0x01afd352      0x11d /usr/lib/gcc/i686-pc-cygwin/4.9.2/libgfortran.a(memory.o)
 .debug_loc     0x01afd46f       0x54 /usr/lib/gcc/i686-pc-cygwin/4.9.2/libgfortran.a(stop.o)
 .debug_loc     0x01afd4c3      0x14a /usr/lib/gcc/i686-pc-cygwin/4.9.2/libgfortran.a(string.o)
 .debug_loc     0x01afd60d       0x7f /usr/lib/gcc/i686-pc-cygwin/4.9.2/libgfortran.a(close.o)
 .debug_loc     0x01afd68c      0x99f /usr/lib/gcc/i686-pc-cygwin/4.9.2/libgfortran.a(file_pos.o)
 .debug_loc     0x01afe02b      0x58c /usr/lib/gcc/i686-pc-cygwin/4.9.2/libgfortran.a(inquire.o)
 .debug_loc     0x01afe5b7       0x5f /usr/lib/gcc/i686-pc-cygwin/4.9.2/libgfortran.a(lock.o)
 .debug_loc     0x01afe616      0x56b /usr/lib/gcc/i686-pc-cygwin/4.9.2/libgfortran.a(open.o)
 .debug_loc     0x01afeb81     0x4fbe /usr/lib/gcc/i686-pc-cygwin/4.9.2/libgfortran.a(transfer.o)
 .debug_loc     0x01b03b3f      0xeab /usr/lib/gcc/i686-pc-cygwin/4.9.2/libgfortran.a(unit.o)
 .debug_loc     0x01b049ea     0x2367 /usr/lib/gcc/i686-pc-cygwin/4.9.2/libgfortran.a(unix.o)
 .debug_loc     0x01b06d51     0x9f1d /usr/lib/gcc/i686-pc-cygwin/4.9.2/libgfortran.a(write.o)
 .debug_loc     0x01b10c6e      0x1dd /usr/lib/gcc/i686-pc-cygwin/4.9.2/libgfortran.a(fbuf.o)
 .debug_loc     0x01b10e4b      0x1c7 /usr/lib/gcc/i686-pc-cygwin/4.9.2/libgfortran.a(args.o)
 .debug_loc     0x01b11012      0x1ab /usr/lib/gcc/i686-pc-cygwin/4.9.2/libgfortran.a(chdir.o)
 .debug_loc     0x01b111bd      0x84f /usr/lib/gcc/i686-pc-cygwin/4.9.2/libgfortran.a(date_and_time.o)
 .debug_loc     0x01b11a0c     0x19a9 /usr/lib/gcc/i686-pc-cygwin/4.9.2/libgfortran.a(string_intrinsics.o)
 .debug_loc     0x01b133b5      0xd57 /usr/lib/gcc/i686-pc-cygwin/4.9.2/libgfortran.a(random.o)
 .debug_loc     0x01b1410c      0x1f1 /usr/lib/gcc/i686-pc-cygwin/4.9.2/libgfortran.a(backtrace.o)
 .debug_loc     0x01b142fd      0x170 /usr/lib/gcc/i686-pc-cygwin/4.9.2/libgfortran.a(fpu.o)
 .debug_loc     0x01b1446d     0x12c6 /usr/lib/gcc/i686-pc-cygwin/4.9.2/libgfortran.a(format.o)
 .debug_loc     0x01b15733     0x40bd /usr/lib/gcc/i686-pc-cygwin/4.9.2/libgfortran.a(list_read.o)
 .debug_loc     0x01b197f0     0x18e5 /usr/lib/gcc/i686-pc-cygwin/4.9.2/libgfortran.a(read.o)
 .debug_loc     0x01b1b0d5       0x3e /usr/lib/gcc/i686-pc-cygwin/4.9.2/libgfortran.a(size_from_kind.o)
 .debug_loc     0x01b1b113      0x29d /usr/lib/gcc/i686-pc-cygwin/4.9.2/libgcc.a(_divdi3.o)
 .debug_loc     0x01b1b3b0      0x7ac /usr/lib/gcc/i686-pc-cygwin/4.9.2/libgcc.a(_udivdi3.o)
 .debug_loc     0x01b1bb5c      0x780 /usr/lib/gcc/i686-pc-cygwin/4.9.2/libgcc.a(_umoddi3.o)
 .debug_loc     0x01b1c2dc     0x3112 /usr/lib/gcc/i686-pc-cygwin/4.9.2/libgcc.a(addtf3.o)
 .debug_loc     0x01b1f3ee     0x199b /usr/lib/gcc/i686-pc-cygwin/4.9.2/libgcc.a(divtf3.o)
 .debug_loc     0x01b20d89      0x3b9 /usr/lib/gcc/i686-pc-cygwin/4.9.2/libgcc.a(eqtf2.o)
 .debug_loc     0x01b21142      0x402 /usr/lib/gcc/i686-pc-cygwin/4.9.2/libgcc.a(getf2.o)
 .debug_loc     0x01b21544      0x2c3 /usr/lib/gcc/i686-pc-cygwin/4.9.2/libgcc.a(letf2.o)
 .debug_loc     0x01b21807     0x165f /usr/lib/gcc/i686-pc-cygwin/4.9.2/libgcc.a(multf3.o)
 .debug_loc     0x01b22e66     0x2fc8 /usr/lib/gcc/i686-pc-cygwin/4.9.2/libgcc.a(subtf3.o)
 .debug_loc     0x01b25e2e      0x2b2 /usr/lib/gcc/i686-pc-cygwin/4.9.2/libgcc.a(floatunditf.o)
 .debug_loc     0x01b260e0       0x48 /usr/lib/gcc/i686-pc-cygwin/4.9.2/libgcc.a(sfp-exceptions.o)
 .debug_loc     0x01b26128     0x61e2 /usr/lib/gcc/i686-pc-cygwin/4.9.2/libgcc_eh.a(unwind-dw2.o)
 .debug_loc     0x01b2c30a     0x218e /usr/lib/gcc/i686-pc-cygwin/4.9.2/libgcc_eh.a(unwind-dw2-fde.o)
 .debug_loc     0x01b2e498       0x4e /usr/lib/gcc/i686-pc-cygwin/4.9.2/libquadmath.a(isnanq.o)
 .debug_loc     0x01b2e4e6       0x73 /usr/lib/gcc/i686-pc-cygwin/4.9.2/../../../libcygwin.a(_cygwin_crt0_common.o)
 .debug_loc     0x01b2e559       0xdd /usr/lib/gcc/i686-pc-cygwin/4.9.2/../../../libcygwin.a(dll_entry.o)

.zdebug_loc
 *(.zdebug_loc)

.debug_macinfo
 *(.debug_macinfo)

.zdebug_macinfo
 *(.zdebug_macinfo)

.debug_weaknames
 *(.debug_weaknames)

.zdebug_weaknames
 *(.zdebug_weaknames)

.debug_funcnames
 *(.debug_funcnames)

.zdebug_funcnames
 *(.zdebug_funcnames)

.debug_typenames
 *(.debug_typenames)

.zdebug_typenames
 *(.zdebug_typenames)

.debug_varnames
 *(.debug_varnames)

.zdebug_varnames
 *(.zdebug_varnames)

.debug_macro    0x01b2f000      0x200
 *(.debug_macro)
 .debug_macro   0x01b2f000        0xc obj/imploc.o
 .debug_macro   0x01b2f00c        0xc obj/io_list.o
 .debug_macro   0x01b2f018        0xc obj/mensamod.o
 .debug_macro   0x01b2f024        0xc obj/zcomm.o
 .debug_macro   0x01b2f030        0xc obj/getoptm.o
 .debug_macro   0x01b2f03c        0xc obj/mlogit.o
 .debug_macro   0x01b2f048        0xc obj/mpowit.o
 .debug_macro   0x01b2f054        0xc obj/distribm.o
 .debug_macro   0x01b2f060        0xc obj/lcomm.o
 .debug_macro   0x01b2f06c        0xc obj/control.o
 .debug_macro   0x01b2f078        0xc obj/gener.o
 .debug_macro   0x01b2f084        0xc obj/param.o
 .debug_macro   0x01b2f090        0xc obj/lparc.o
 .debug_macro   0x01b2f09c        0xc obj/optionsm.o
 .debug_macro   0x01b2f0a8        0xc obj/debugm.o

.zdebug_macro
 *(.zdebug_macro)

.debug_ranges   0x01b30000     0x5800
 *(.debug_ranges)
 .debug_ranges  0x01b30000       0xc0 obj/imploc.o
 .debug_ranges  0x01b300c0       0x48 obj/io_list.o
 .debug_ranges  0x01b30108       0xd8 obj/getoptm.o
 .debug_ranges  0x01b301e0       0x18 obj/distribm.o
 .debug_ranges  0x01b301f8       0x48 obj/lcomm.o
 .debug_ranges  0x01b30240       0xe0 obj/control.o
 .debug_ranges  0x01b30320       0xb0 obj/gener.o
 .debug_ranges  0x01b303d0       0x30 obj/debugm.o
 .debug_ranges  0x01b30400       0x68 /usr/lib/gcc/i686-pc-cygwin/4.9.2/libgfortran.a(compile_options.o)
 .debug_ranges  0x01b30468      0x160 /usr/lib/gcc/i686-pc-cygwin/4.9.2/libgfortran.a(environ.o)
 .debug_ranges  0x01b305c8      0x150 /usr/lib/gcc/i686-pc-cygwin/4.9.2/libgfortran.a(error.o)
 .debug_ranges  0x01b30718       0x80 /usr/lib/gcc/i686-pc-cygwin/4.9.2/libgfortran.a(main.o)
 .debug_ranges  0x01b30798       0x20 /usr/lib/gcc/i686-pc-cygwin/4.9.2/libgfortran.a(memory.o)
 .debug_ranges  0x01b307b8       0xd0 /usr/lib/gcc/i686-pc-cygwin/4.9.2/libgfortran.a(stop.o)
 .debug_ranges  0x01b30888       0x40 /usr/lib/gcc/i686-pc-cygwin/4.9.2/libgfortran.a(string.o)
 .debug_ranges  0x01b308c8       0x10 /usr/lib/gcc/i686-pc-cygwin/4.9.2/libgfortran.a(close.o)
 .debug_ranges  0x01b308d8      0x118 /usr/lib/gcc/i686-pc-cygwin/4.9.2/libgfortran.a(file_pos.o)
 .debug_ranges  0x01b309f0       0xb8 /usr/lib/gcc/i686-pc-cygwin/4.9.2/libgfortran.a(inquire.o)
 .debug_ranges  0x01b30aa8       0x18 /usr/lib/gcc/i686-pc-cygwin/4.9.2/libgfortran.a(lock.o)
 .debug_ranges  0x01b30ac0       0xd0 /usr/lib/gcc/i686-pc-cygwin/4.9.2/libgfortran.a(open.o)
 .debug_ranges  0x01b30b90      0x898 /usr/lib/gcc/i686-pc-cygwin/4.9.2/libgfortran.a(transfer.o)
 .debug_ranges  0x01b31428      0x1a0 /usr/lib/gcc/i686-pc-cygwin/4.9.2/libgfortran.a(unit.o)
 .debug_ranges  0x01b315c8      0x4d8 /usr/lib/gcc/i686-pc-cygwin/4.9.2/libgfortran.a(unix.o)
 .debug_ranges  0x01b31aa0      0x9e0 /usr/lib/gcc/i686-pc-cygwin/4.9.2/libgfortran.a(write.o)
 .debug_ranges  0x01b32480       0x68 /usr/lib/gcc/i686-pc-cygwin/4.9.2/libgfortran.a(fbuf.o)
 .debug_ranges  0x01b324e8       0x40 /usr/lib/gcc/i686-pc-cygwin/4.9.2/libgfortran.a(args.o)
 .debug_ranges  0x01b32528       0x28 /usr/lib/gcc/i686-pc-cygwin/4.9.2/libgfortran.a(chdir.o)
 .debug_ranges  0x01b32550       0xb8 /usr/lib/gcc/i686-pc-cygwin/4.9.2/libgfortran.a(date_and_time.o)
 .debug_ranges  0x01b32608      0x150 /usr/lib/gcc/i686-pc-cygwin/4.9.2/libgfortran.a(string_intrinsics.o)
 .debug_ranges  0x01b32758      0x330 /usr/lib/gcc/i686-pc-cygwin/4.9.2/libgfortran.a(random.o)
 .debug_ranges  0x01b32a88       0xa0 /usr/lib/gcc/i686-pc-cygwin/4.9.2/libgfortran.a(backtrace.o)
 .debug_ranges  0x01b32b28       0x78 /usr/lib/gcc/i686-pc-cygwin/4.9.2/libgfortran.a(fpu.o)
 .debug_ranges  0x01b32ba0      0x330 /usr/lib/gcc/i686-pc-cygwin/4.9.2/libgfortran.a(format.o)
 .debug_ranges  0x01b32ed0      0x388 /usr/lib/gcc/i686-pc-cygwin/4.9.2/libgfortran.a(list_read.o)
 .debug_ranges  0x01b33258      0x150 /usr/lib/gcc/i686-pc-cygwin/4.9.2/libgfortran.a(read.o)
 .debug_ranges  0x01b333a8       0x18 /usr/lib/gcc/i686-pc-cygwin/4.9.2/libgfortran.a(size_from_kind.o)
 .debug_ranges  0x01b333c0       0x20 /usr/lib/gcc/i686-pc-cygwin/4.9.2/libgcc.a(_divdi3.o)
 .debug_ranges  0x01b333e0       0x50 /usr/lib/gcc/i686-pc-cygwin/4.9.2/libgcc.a(_udivdi3.o)
 .debug_ranges  0x01b33430       0x30 /usr/lib/gcc/i686-pc-cygwin/4.9.2/libgcc.a(_umoddi3.o)
 .debug_ranges  0x01b33460      0x740 /usr/lib/gcc/i686-pc-cygwin/4.9.2/libgcc.a(addtf3.o)
 .debug_ranges  0x01b33ba0      0x250 /usr/lib/gcc/i686-pc-cygwin/4.9.2/libgcc.a(divtf3.o)
 .debug_ranges  0x01b33df0       0x90 /usr/lib/gcc/i686-pc-cygwin/4.9.2/libgcc.a(eqtf2.o)
 .debug_ranges  0x01b33e80       0x88 /usr/lib/gcc/i686-pc-cygwin/4.9.2/libgcc.a(getf2.o)
 .debug_ranges  0x01b33f08       0x80 /usr/lib/gcc/i686-pc-cygwin/4.9.2/libgcc.a(letf2.o)
 .debug_ranges  0x01b33f88      0x200 /usr/lib/gcc/i686-pc-cygwin/4.9.2/libgcc.a(multf3.o)
 .debug_ranges  0x01b34188      0x708 /usr/lib/gcc/i686-pc-cygwin/4.9.2/libgcc.a(subtf3.o)
 .debug_ranges  0x01b34890       0x60 /usr/lib/gcc/i686-pc-cygwin/4.9.2/libgcc.a(floatunditf.o)
 .debug_ranges  0x01b348f0      0x968 /usr/lib/gcc/i686-pc-cygwin/4.9.2/libgcc_eh.a(unwind-dw2.o)
 .debug_ranges  0x01b35258      0x3a0 /usr/lib/gcc/i686-pc-cygwin/4.9.2/libgcc_eh.a(unwind-dw2-fde.o)
 .debug_ranges  0x01b355f8       0x18 /usr/lib/gcc/i686-pc-cygwin/4.9.2/../../../libcygwin.a(_cygwin_crt0_common.o)

.zdebug_ranges
 *(.zdebug_ranges)

.debug_types
 *(.debug_types .gnu.linkonce.wt.*)

.zdebug_types
 *(.zdebug_types .gnu.linkonce.wt.*)
OUTPUT(bin/imploc.exe pei-i386)
